ARM GAS  /tmp/ccVqbCXN.s 			page 1


   1              		.cpu cortex-m4
   2              		.arch armv7e-m
   3              		.fpu fpv4-sp-d16
   4              		.eabi_attribute 27, 1
   5              		.eabi_attribute 28, 1
   6              		.eabi_attribute 20, 1
   7              		.eabi_attribute 21, 1
   8              		.eabi_attribute 23, 3
   9              		.eabi_attribute 24, 1
  10              		.eabi_attribute 25, 1
  11              		.eabi_attribute 26, 1
  12              		.eabi_attribute 30, 1
  13              		.eabi_attribute 34, 1
  14              		.eabi_attribute 18, 4
  15              		.file	"esos_cb.c"
  16              		.text
  17              	.Ltext0:
  18              		.cfi_sections	.debug_frame
  19              		.section	.text.__esos_CB_Init,"ax",%progbits
  20              		.align	1
  21              		.global	__esos_CB_Init
  22              		.syntax unified
  23              		.thumb
  24              		.thumb_func
  26              	__esos_CB_Init:
  27              	.LVL0:
  28              	.LFB0:
  29              		.file 1 "/home/bdreed43/Documents/gcc/esos32/src/esos_cb.c"
   1:/home/bdreed43/Documents/gcc/esos32/src/esos_cb.c **** /*
   2:/home/bdreed43/Documents/gcc/esos32/src/esos_cb.c ****  * "Copyright (c) 2019 J. W. Bruce ("AUTHOR(S)")"
   3:/home/bdreed43/Documents/gcc/esos32/src/esos_cb.c ****  * All rights reserved.
   4:/home/bdreed43/Documents/gcc/esos32/src/esos_cb.c ****  * (J. W. Bruce, jwbruce_AT_tntech.edu, Tennessee Tech University)
   5:/home/bdreed43/Documents/gcc/esos32/src/esos_cb.c ****  *
   6:/home/bdreed43/Documents/gcc/esos32/src/esos_cb.c ****  * Permission to use, copy, modify, and distribute this software and its
   7:/home/bdreed43/Documents/gcc/esos32/src/esos_cb.c ****  * documentation for any purpose, without fee, and without written agreement is
   8:/home/bdreed43/Documents/gcc/esos32/src/esos_cb.c ****  * hereby granted, provided that the above copyright notice, the following
   9:/home/bdreed43/Documents/gcc/esos32/src/esos_cb.c ****  * two paragraphs and the authors appear in all copies of this software.
  10:/home/bdreed43/Documents/gcc/esos32/src/esos_cb.c ****  *
  11:/home/bdreed43/Documents/gcc/esos32/src/esos_cb.c ****  * IN NO EVENT SHALL THE "AUTHORS" BE LIABLE TO ANY PARTY FOR
  12:/home/bdreed43/Documents/gcc/esos32/src/esos_cb.c ****  * DIRECT, INDIRECT, SPECIAL, INCIDENTAL, OR CONSEQUENTIAL DAMAGES ARISING OUT
  13:/home/bdreed43/Documents/gcc/esos32/src/esos_cb.c ****  * OF THE USE OF THIS SOFTWARE AND ITS DOCUMENTATION, EVEN IF THE "AUTHORS"
  14:/home/bdreed43/Documents/gcc/esos32/src/esos_cb.c ****  * HAS BEEN ADVISED OF THE POSSIBILITY OF SUCH DAMAGE.
  15:/home/bdreed43/Documents/gcc/esos32/src/esos_cb.c ****  *
  16:/home/bdreed43/Documents/gcc/esos32/src/esos_cb.c ****  * THE "AUTHORS" SPECIFICALLY DISCLAIMS ANY WARRANTIES,
  17:/home/bdreed43/Documents/gcc/esos32/src/esos_cb.c ****  * INCLUDING, BUT NOT LIMITED TO, THE IMPLIED WARRANTIES OF MERCHANTABILITY
  18:/home/bdreed43/Documents/gcc/esos32/src/esos_cb.c ****  * AND FITNESS FOR A PARTICULAR PURPOSE.  THE SOFTWARE PROVIDED HEREUNDER IS
  19:/home/bdreed43/Documents/gcc/esos32/src/esos_cb.c ****  * ON AN "AS IS" BASIS, AND THE "AUTHORS" HAS NO OBLIGATION TO
  20:/home/bdreed43/Documents/gcc/esos32/src/esos_cb.c ****  * PROVIDE MAINTENANCE, SUPPORT, UPDATES, ENHANCEMENTS, OR MODIFICATIONS."
  21:/home/bdreed43/Documents/gcc/esos32/src/esos_cb.c ****  *
  22:/home/bdreed43/Documents/gcc/esos32/src/esos_cb.c ****  * Please maintain this header in its entirety when copying/modifying
  23:/home/bdreed43/Documents/gcc/esos32/src/esos_cb.c ****  * these files.
  24:/home/bdreed43/Documents/gcc/esos32/src/esos_cb.c ****  *
  25:/home/bdreed43/Documents/gcc/esos32/src/esos_cb.c ****  *
  26:/home/bdreed43/Documents/gcc/esos32/src/esos_cb.c ****  */
  27:/home/bdreed43/Documents/gcc/esos32/src/esos_cb.c **** 
  28:/home/bdreed43/Documents/gcc/esos32/src/esos_cb.c **** /** \file
  29:/home/bdreed43/Documents/gcc/esos32/src/esos_cb.c ****  * \brief Circular buffer routines for ESOS32
ARM GAS  /tmp/ccVqbCXN.s 			page 2


  30:/home/bdreed43/Documents/gcc/esos32/src/esos_cb.c ****  *
  31:/home/bdreed43/Documents/gcc/esos32/src/esos_cb.c ****  */
  32:/home/bdreed43/Documents/gcc/esos32/src/esos_cb.c **** 
  33:/home/bdreed43/Documents/gcc/esos32/src/esos_cb.c **** 
  34:/home/bdreed43/Documents/gcc/esos32/src/esos_cb.c **** #include    "esos.h"
  35:/home/bdreed43/Documents/gcc/esos32/src/esos_cb.c **** #include    "esos_cb.h"
  36:/home/bdreed43/Documents/gcc/esos32/src/esos_cb.c **** 
  37:/home/bdreed43/Documents/gcc/esos32/src/esos_cb.c **** // ******** G L O B A L S ***************
  38:/home/bdreed43/Documents/gcc/esos32/src/esos_cb.c **** 
  39:/home/bdreed43/Documents/gcc/esos32/src/esos_cb.c **** /****************************************************************
  40:/home/bdreed43/Documents/gcc/esos32/src/esos_cb.c **** ** F U N C T I O N S
  41:/home/bdreed43/Documents/gcc/esos32/src/esos_cb.c **** ****************************************************************/
  42:/home/bdreed43/Documents/gcc/esos32/src/esos_cb.c **** void __esos_CB_Init(CBUFFER* pst_CBuffer, uint8_t* pau8_ptr, uint16_t u16_Len) {
  30              		.loc 1 42 80 view -0
  31              		.cfi_startproc
  32              		@ args = 0, pretend = 0, frame = 0
  33              		@ frame_needed = 0, uses_anonymous_args = 0
  34              		@ link register save eliminated.
  43:/home/bdreed43/Documents/gcc/esos32/src/esos_cb.c ****   // setup (or reset) the circular buffer descriptors
  44:/home/bdreed43/Documents/gcc/esos32/src/esos_cb.c ****   pst_CBuffer->u16_Start = 0;
  35              		.loc 1 44 3 view .LVU1
  36              		.loc 1 44 26 is_stmt 0 view .LVU2
  37 0000 0023     		movs	r3, #0
  38 0002 4380     		strh	r3, [r0, #2]	@ movhi
  45:/home/bdreed43/Documents/gcc/esos32/src/esos_cb.c ****   pst_CBuffer->u16_Count = 0;
  39              		.loc 1 45 3 is_stmt 1 view .LVU3
  40              		.loc 1 45 26 is_stmt 0 view .LVU4
  41 0004 8380     		strh	r3, [r0, #4]	@ movhi
  46:/home/bdreed43/Documents/gcc/esos32/src/esos_cb.c ****   pst_CBuffer->u16_Length = u16_Len;
  42              		.loc 1 46 3 is_stmt 1 view .LVU5
  43              		.loc 1 46 27 is_stmt 0 view .LVU6
  44 0006 0280     		strh	r2, [r0]	@ movhi
  47:/home/bdreed43/Documents/gcc/esos32/src/esos_cb.c ****   pst_CBuffer->pau8_Data = pau8_ptr;
  45              		.loc 1 47 3 is_stmt 1 view .LVU7
  46              		.loc 1 47 26 is_stmt 0 view .LVU8
  47 0008 8160     		str	r1, [r0, #8]
  48:/home/bdreed43/Documents/gcc/esos32/src/esos_cb.c **** } // endof __esos_CB_Init()
  48              		.loc 1 48 1 view .LVU9
  49 000a 7047     		bx	lr
  50              		.cfi_endproc
  51              	.LFE0:
  53              		.section	.text.__esos_CB_WriteUINT8,"ax",%progbits
  54              		.align	1
  55              		.global	__esos_CB_WriteUINT8
  56              		.syntax unified
  57              		.thumb
  58              		.thumb_func
  60              	__esos_CB_WriteUINT8:
  61              	.LVL1:
  62              	.LFB1:
  49:/home/bdreed43/Documents/gcc/esos32/src/esos_cb.c **** 
  50:/home/bdreed43/Documents/gcc/esos32/src/esos_cb.c **** 
  51:/home/bdreed43/Documents/gcc/esos32/src/esos_cb.c **** /******************************************
  52:/home/bdreed43/Documents/gcc/esos32/src/esos_cb.c **** *** LOCAL HELPER MACROS
  53:/home/bdreed43/Documents/gcc/esos32/src/esos_cb.c **** ******************************************/
  54:/home/bdreed43/Documents/gcc/esos32/src/esos_cb.c **** #define __WRITE_CB_UINT8(pstB,u8x,u16e)                                       \
  55:/home/bdreed43/Documents/gcc/esos32/src/esos_cb.c ****   do {                                                                        \
ARM GAS  /tmp/ccVqbCXN.s 			page 3


  56:/home/bdreed43/Documents/gcc/esos32/src/esos_cb.c ****     if ((pstB)->u16_Count < (pstB)->u16_Length) {                             \
  57:/home/bdreed43/Documents/gcc/esos32/src/esos_cb.c ****       (u16e) = ((pstB)->u16_Start + (pstB)->u16_Count) % (pstB)->u16_Length;  \
  58:/home/bdreed43/Documents/gcc/esos32/src/esos_cb.c ****       (pstB)->pau8_Data[(u16e)] = (u8x);                                      \
  59:/home/bdreed43/Documents/gcc/esos32/src/esos_cb.c ****       ++(pstB)->u16_Count;                                                    \
  60:/home/bdreed43/Documents/gcc/esos32/src/esos_cb.c ****     }                                                                         \
  61:/home/bdreed43/Documents/gcc/esos32/src/esos_cb.c ****   }while(0)
  62:/home/bdreed43/Documents/gcc/esos32/src/esos_cb.c **** 
  63:/home/bdreed43/Documents/gcc/esos32/src/esos_cb.c **** #define __OVERWRITE_CB_UINT8(pstB,u8x,u16e)                                   \
  64:/home/bdreed43/Documents/gcc/esos32/src/esos_cb.c ****   do {                                                                        \
  65:/home/bdreed43/Documents/gcc/esos32/src/esos_cb.c ****     (u16e) = ((pstB)->u16_Start + (pstB)->u16_Count) % (pstB)->u16_Length;    \
  66:/home/bdreed43/Documents/gcc/esos32/src/esos_cb.c ****     (pstB)->pau8_Data[(u16e)] = (u8x);                                        \
  67:/home/bdreed43/Documents/gcc/esos32/src/esos_cb.c ****     if ((pstB)->u16_Count == (pstB)->u16_Length)                              \
  68:/home/bdreed43/Documents/gcc/esos32/src/esos_cb.c ****       (pstB)->u16_Start = ((pstB)->u16_Start + 1) % (pstB)->u16_Length;       \
  69:/home/bdreed43/Documents/gcc/esos32/src/esos_cb.c ****     else                                                                      \
  70:/home/bdreed43/Documents/gcc/esos32/src/esos_cb.c ****       ++(pstB)->u16_Count;                                                    \
  71:/home/bdreed43/Documents/gcc/esos32/src/esos_cb.c ****   }while(0)
  72:/home/bdreed43/Documents/gcc/esos32/src/esos_cb.c **** 
  73:/home/bdreed43/Documents/gcc/esos32/src/esos_cb.c **** #define __READ_CB_UINT8(pstB,u8x)                                             \
  74:/home/bdreed43/Documents/gcc/esos32/src/esos_cb.c ****   do {                                                                        \
  75:/home/bdreed43/Documents/gcc/esos32/src/esos_cb.c ****     (u8x) = (pstB)->pau8_Data[(pstB)->u16_Start];                             \
  76:/home/bdreed43/Documents/gcc/esos32/src/esos_cb.c ****     (pstB)->u16_Start = ((pstB)->u16_Start + 1) % (pstB)->u16_Length;         \
  77:/home/bdreed43/Documents/gcc/esos32/src/esos_cb.c ****     --(pstB)->u16_Count;                                                      \
  78:/home/bdreed43/Documents/gcc/esos32/src/esos_cb.c ****   } while(0)
  79:/home/bdreed43/Documents/gcc/esos32/src/esos_cb.c **** 
  80:/home/bdreed43/Documents/gcc/esos32/src/esos_cb.c **** 
  81:/home/bdreed43/Documents/gcc/esos32/src/esos_cb.c **** /***************************************************************
  82:/home/bdreed43/Documents/gcc/esos32/src/esos_cb.c **** **** WRITERs
  83:/home/bdreed43/Documents/gcc/esos32/src/esos_cb.c **** ***************************************************************/
  84:/home/bdreed43/Documents/gcc/esos32/src/esos_cb.c **** 
  85:/home/bdreed43/Documents/gcc/esos32/src/esos_cb.c **** /**
  86:/home/bdreed43/Documents/gcc/esos32/src/esos_cb.c **** * Writes byte data to a circular buffer
  87:/home/bdreed43/Documents/gcc/esos32/src/esos_cb.c **** *
  88:/home/bdreed43/Documents/gcc/esos32/src/esos_cb.c **** * \param pst_CBuffer  pointer to structure (CBUFFER) describing the circular buffer
  89:/home/bdreed43/Documents/gcc/esos32/src/esos_cb.c **** * \param u8_x     data to write to the circular buffer
  90:/home/bdreed43/Documents/gcc/esos32/src/esos_cb.c **** * \note This function <em>ASSUMES</em> that there is ample free
  91:/home/bdreed43/Documents/gcc/esos32/src/esos_cb.c **** * space available in specified circular buffer.
  92:/home/bdreed43/Documents/gcc/esos32/src/esos_cb.c **** *
  93:/home/bdreed43/Documents/gcc/esos32/src/esos_cb.c **** * \hideinitializer
  94:/home/bdreed43/Documents/gcc/esos32/src/esos_cb.c **** */
  95:/home/bdreed43/Documents/gcc/esos32/src/esos_cb.c **** void __esos_CB_WriteUINT8(CBUFFER* pst_CBuffer, uint8_t u8_x ) {
  63              		.loc 1 95 64 is_stmt 1 view -0
  64              		.cfi_startproc
  65              		@ args = 0, pretend = 0, frame = 0
  66              		@ frame_needed = 0, uses_anonymous_args = 0
  67              		@ link register save eliminated.
  96:/home/bdreed43/Documents/gcc/esos32/src/esos_cb.c ****   uint16_t    u16_end;
  68              		.loc 1 96 3 view .LVU11
  97:/home/bdreed43/Documents/gcc/esos32/src/esos_cb.c **** 
  98:/home/bdreed43/Documents/gcc/esos32/src/esos_cb.c ****   __WRITE_CB_UINT8(pst_CBuffer,u8_x,u16_end);
  69              		.loc 1 98 3 view .LVU12
  70              		.loc 1 98 3 view .LVU13
  71 0000 8388     		ldrh	r3, [r0, #4]
  72 0002 B0F800C0 		ldrh	ip, [r0]
  73 0006 6345     		cmp	r3, ip
  74 0008 0BD2     		bcs	.L2
  75              		.loc 1 98 3 discriminator 1 view .LVU14
  76 000a 4288     		ldrh	r2, [r0, #2]
ARM GAS  /tmp/ccVqbCXN.s 			page 4


  77 000c 1344     		add	r3, r3, r2
  78 000e 93FBFCF2 		sdiv	r2, r3, ip
  79 0012 0CFB1233 		mls	r3, ip, r2, r3
  80              	.LVL2:
  81              		.loc 1 98 3 discriminator 1 view .LVU15
  82 0016 8268     		ldr	r2, [r0, #8]
  83 0018 9BB2     		uxth	r3, r3
  84              		.loc 1 98 3 is_stmt 0 discriminator 1 view .LVU16
  85 001a D154     		strb	r1, [r2, r3]
  86              		.loc 1 98 3 is_stmt 1 discriminator 1 view .LVU17
  87 001c 8388     		ldrh	r3, [r0, #4]
  88              	.LVL3:
  89              		.loc 1 98 3 is_stmt 0 discriminator 1 view .LVU18
  90 001e 0133     		adds	r3, r3, #1
  91 0020 8380     		strh	r3, [r0, #4]	@ movhi
  92              		.loc 1 98 3 is_stmt 1 discriminator 1 view .LVU19
  93              	.L2:
  99:/home/bdreed43/Documents/gcc/esos32/src/esos_cb.c **** } // end __esos_CB_WriteUINT8()
  94              		.loc 1 99 1 is_stmt 0 view .LVU20
  95 0022 7047     		bx	lr
  96              		.cfi_endproc
  97              	.LFE1:
  99              		.section	.text.__esos_CB_OverwriteUINT8,"ax",%progbits
 100              		.align	1
 101              		.global	__esos_CB_OverwriteUINT8
 102              		.syntax unified
 103              		.thumb
 104              		.thumb_func
 106              	__esos_CB_OverwriteUINT8:
 107              	.LVL4:
 108              	.LFB2:
 100:/home/bdreed43/Documents/gcc/esos32/src/esos_cb.c **** 
 101:/home/bdreed43/Documents/gcc/esos32/src/esos_cb.c **** void __esos_CB_OverwriteUINT8(CBUFFER* pst_CBuffer, uint8_t u8_x ) {
 109              		.loc 1 101 68 is_stmt 1 view -0
 110              		.cfi_startproc
 111              		@ args = 0, pretend = 0, frame = 0
 112              		@ frame_needed = 0, uses_anonymous_args = 0
 113              		@ link register save eliminated.
 102:/home/bdreed43/Documents/gcc/esos32/src/esos_cb.c ****   uint16_t    u16_end;
 114              		.loc 1 102 3 view .LVU22
 103:/home/bdreed43/Documents/gcc/esos32/src/esos_cb.c **** 
 104:/home/bdreed43/Documents/gcc/esos32/src/esos_cb.c ****   __OVERWRITE_CB_UINT8(pst_CBuffer,u8_x,u16_end);
 115              		.loc 1 104 3 view .LVU23
 116              		.loc 1 104 3 view .LVU24
 117 0000 4388     		ldrh	r3, [r0, #2]
 118 0002 8288     		ldrh	r2, [r0, #4]
 119 0004 1344     		add	r3, r3, r2
 120 0006 0288     		ldrh	r2, [r0]
 121 0008 93FBF2FC 		sdiv	ip, r3, r2
 122 000c 02FB1C33 		mls	r3, r2, ip, r3
 123              	.LVL5:
 124              		.loc 1 104 3 view .LVU25
 125 0010 8268     		ldr	r2, [r0, #8]
 126 0012 9BB2     		uxth	r3, r3
 127              		.loc 1 104 3 is_stmt 0 view .LVU26
 128 0014 D154     		strb	r1, [r2, r3]
 129              		.loc 1 104 3 is_stmt 1 view .LVU27
ARM GAS  /tmp/ccVqbCXN.s 			page 5


 130 0016 8388     		ldrh	r3, [r0, #4]
 131              	.LVL6:
 132              		.loc 1 104 3 is_stmt 0 view .LVU28
 133 0018 0288     		ldrh	r2, [r0]
 134 001a 9342     		cmp	r3, r2
 135 001c 02D0     		beq	.L7
 136              		.loc 1 104 3 is_stmt 1 discriminator 2 view .LVU29
 137 001e 0133     		adds	r3, r3, #1
 138 0020 8380     		strh	r3, [r0, #4]	@ movhi
 139              		.loc 1 104 3 discriminator 2 view .LVU30
 105:/home/bdreed43/Documents/gcc/esos32/src/esos_cb.c **** } // end __esos_CB_OverwriteUINT8()
 140              		.loc 1 105 1 is_stmt 0 discriminator 2 view .LVU31
 141 0022 7047     		bx	lr
 142              	.L7:
 104:/home/bdreed43/Documents/gcc/esos32/src/esos_cb.c **** } // end __esos_CB_OverwriteUINT8()
 143              		.loc 1 104 3 is_stmt 1 discriminator 1 view .LVU32
 144 0024 4388     		ldrh	r3, [r0, #2]
 145 0026 0133     		adds	r3, r3, #1
 146 0028 93FBF2F1 		sdiv	r1, r3, r2
 147              	.LVL7:
 104:/home/bdreed43/Documents/gcc/esos32/src/esos_cb.c **** } // end __esos_CB_OverwriteUINT8()
 148              		.loc 1 104 3 is_stmt 0 discriminator 1 view .LVU33
 149 002c 02FB1133 		mls	r3, r2, r1, r3
 150 0030 4380     		strh	r3, [r0, #2]	@ movhi
 104:/home/bdreed43/Documents/gcc/esos32/src/esos_cb.c **** } // end __esos_CB_OverwriteUINT8()
 151              		.loc 1 104 3 discriminator 1 view .LVU34
 152 0032 7047     		bx	lr
 153              		.cfi_endproc
 154              	.LFE2:
 156              		.section	.text.__esos_CB_WriteUINT16,"ax",%progbits
 157              		.align	1
 158              		.global	__esos_CB_WriteUINT16
 159              		.syntax unified
 160              		.thumb
 161              		.thumb_func
 163              	__esos_CB_WriteUINT16:
 164              	.LVL8:
 165              	.LFB3:
 106:/home/bdreed43/Documents/gcc/esos32/src/esos_cb.c **** 
 107:/home/bdreed43/Documents/gcc/esos32/src/esos_cb.c **** void __esos_CB_WriteUINT16(CBUFFER* pst_CBuffer, uint16_t u16_x ) {
 166              		.loc 1 107 67 is_stmt 1 view -0
 167              		.cfi_startproc
 168              		@ args = 0, pretend = 0, frame = 0
 169              		@ frame_needed = 0, uses_anonymous_args = 0
 170              		.loc 1 107 67 is_stmt 0 view .LVU36
 171 0000 00B5     		push	{lr}
 172              	.LCFI0:
 173              		.cfi_def_cfa_offset 4
 174              		.cfi_offset 14, -4
 108:/home/bdreed43/Documents/gcc/esos32/src/esos_cb.c ****   uint16_t    u16_end;
 175              		.loc 1 108 3 is_stmt 1 view .LVU37
 109:/home/bdreed43/Documents/gcc/esos32/src/esos_cb.c ****   uint8_t     u8_temp;
 176              		.loc 1 109 3 view .LVU38
 110:/home/bdreed43/Documents/gcc/esos32/src/esos_cb.c **** 
 111:/home/bdreed43/Documents/gcc/esos32/src/esos_cb.c ****   u8_temp = (uint8_t) u16_x & 0xFF;
 177              		.loc 1 111 3 view .LVU39
 178              	.LVL9:
ARM GAS  /tmp/ccVqbCXN.s 			page 6


 112:/home/bdreed43/Documents/gcc/esos32/src/esos_cb.c ****   __WRITE_CB_UINT8(pst_CBuffer,u8_temp,u16_end);
 179              		.loc 1 112 3 view .LVU40
 180              		.loc 1 112 3 view .LVU41
 181 0002 8388     		ldrh	r3, [r0, #4]
 182 0004 B0F800C0 		ldrh	ip, [r0]
 183 0008 6345     		cmp	r3, ip
 184 000a 0ED2     		bcs	.L9
 185 000c 5FFA81FE 		uxtb	lr, r1
 186              		.loc 1 112 3 discriminator 1 view .LVU42
 187 0010 4288     		ldrh	r2, [r0, #2]
 188 0012 1344     		add	r3, r3, r2
 189 0014 93FBFCF2 		sdiv	r2, r3, ip
 190 0018 0CFB1233 		mls	r3, ip, r2, r3
 191              	.LVL10:
 192              		.loc 1 112 3 discriminator 1 view .LVU43
 193 001c 8268     		ldr	r2, [r0, #8]
 194 001e 9BB2     		uxth	r3, r3
 195              		.loc 1 112 3 is_stmt 0 discriminator 1 view .LVU44
 196 0020 02F803E0 		strb	lr, [r2, r3]
 197              		.loc 1 112 3 is_stmt 1 discriminator 1 view .LVU45
 198 0024 8388     		ldrh	r3, [r0, #4]
 199              	.LVL11:
 200              		.loc 1 112 3 is_stmt 0 discriminator 1 view .LVU46
 201 0026 0133     		adds	r3, r3, #1
 202 0028 8380     		strh	r3, [r0, #4]	@ movhi
 203              	.L9:
 204              		.loc 1 112 3 is_stmt 1 discriminator 3 view .LVU47
 113:/home/bdreed43/Documents/gcc/esos32/src/esos_cb.c ****   u8_temp = (uint8_t) (u16_x>>8);
 205              		.loc 1 113 3 discriminator 3 view .LVU48
 206              		.loc 1 113 11 is_stmt 0 discriminator 3 view .LVU49
 207 002a 090A     		lsrs	r1, r1, #8
 208              	.LVL12:
 114:/home/bdreed43/Documents/gcc/esos32/src/esos_cb.c ****   __WRITE_CB_UINT8(pst_CBuffer,u8_temp,u16_end);
 209              		.loc 1 114 3 is_stmt 1 discriminator 3 view .LVU50
 210              		.loc 1 114 3 discriminator 3 view .LVU51
 211 002c 8388     		ldrh	r3, [r0, #4]
 212 002e B0F800C0 		ldrh	ip, [r0]
 213 0032 6345     		cmp	r3, ip
 214 0034 0BD2     		bcs	.L8
 215              		.loc 1 114 3 discriminator 1 view .LVU52
 216 0036 4288     		ldrh	r2, [r0, #2]
 217 0038 1344     		add	r3, r3, r2
 218 003a 93FBFCF2 		sdiv	r2, r3, ip
 219 003e 0CFB1233 		mls	r3, ip, r2, r3
 220              	.LVL13:
 221              		.loc 1 114 3 discriminator 1 view .LVU53
 222 0042 8268     		ldr	r2, [r0, #8]
 223 0044 9BB2     		uxth	r3, r3
 224              		.loc 1 114 3 is_stmt 0 discriminator 1 view .LVU54
 225 0046 D154     		strb	r1, [r2, r3]
 226              		.loc 1 114 3 is_stmt 1 discriminator 1 view .LVU55
 227 0048 8388     		ldrh	r3, [r0, #4]
 228              	.LVL14:
 229              		.loc 1 114 3 is_stmt 0 discriminator 1 view .LVU56
 230 004a 0133     		adds	r3, r3, #1
 231 004c 8380     		strh	r3, [r0, #4]	@ movhi
 232              		.loc 1 114 3 is_stmt 1 discriminator 1 view .LVU57
ARM GAS  /tmp/ccVqbCXN.s 			page 7


 233              	.L8:
 115:/home/bdreed43/Documents/gcc/esos32/src/esos_cb.c **** } // end __esos_CB_WriteUINT16()
 234              		.loc 1 115 1 is_stmt 0 view .LVU58
 235 004e 5DF804FB 		ldr	pc, [sp], #4
 236              		.cfi_endproc
 237              	.LFE3:
 239              		.section	.text.__esos_CB_WriteUINT32,"ax",%progbits
 240              		.align	1
 241              		.global	__esos_CB_WriteUINT32
 242              		.syntax unified
 243              		.thumb
 244              		.thumb_func
 246              	__esos_CB_WriteUINT32:
 247              	.LVL15:
 248              	.LFB4:
 116:/home/bdreed43/Documents/gcc/esos32/src/esos_cb.c **** 
 117:/home/bdreed43/Documents/gcc/esos32/src/esos_cb.c **** void __esos_CB_WriteUINT32(CBUFFER* pst_CBuffer, uint32_t u32_x ) {
 249              		.loc 1 117 67 is_stmt 1 view -0
 250              		.cfi_startproc
 251              		@ args = 0, pretend = 0, frame = 0
 252              		@ frame_needed = 0, uses_anonymous_args = 0
 253              		.loc 1 117 67 is_stmt 0 view .LVU60
 254 0000 00B5     		push	{lr}
 255              	.LCFI1:
 256              		.cfi_def_cfa_offset 4
 257              		.cfi_offset 14, -4
 118:/home/bdreed43/Documents/gcc/esos32/src/esos_cb.c ****   uint16_t    u16_end;
 258              		.loc 1 118 3 is_stmt 1 view .LVU61
 119:/home/bdreed43/Documents/gcc/esos32/src/esos_cb.c ****   uint8_t     u8_temp;
 259              		.loc 1 119 3 view .LVU62
 120:/home/bdreed43/Documents/gcc/esos32/src/esos_cb.c **** 
 121:/home/bdreed43/Documents/gcc/esos32/src/esos_cb.c ****   u8_temp = (uint8_t) u32_x & 0xFF;
 260              		.loc 1 121 3 view .LVU63
 261              	.LVL16:
 122:/home/bdreed43/Documents/gcc/esos32/src/esos_cb.c ****   __WRITE_CB_UINT8(pst_CBuffer,u8_temp,u16_end);
 262              		.loc 1 122 3 view .LVU64
 263              		.loc 1 122 3 view .LVU65
 264 0002 8388     		ldrh	r3, [r0, #4]
 265 0004 B0F800C0 		ldrh	ip, [r0]
 266 0008 6345     		cmp	r3, ip
 267 000a 0ED2     		bcs	.L13
 268 000c 5FFA81FE 		uxtb	lr, r1
 269              		.loc 1 122 3 discriminator 1 view .LVU66
 270 0010 4288     		ldrh	r2, [r0, #2]
 271 0012 1344     		add	r3, r3, r2
 272 0014 93FBFCF2 		sdiv	r2, r3, ip
 273 0018 0CFB1233 		mls	r3, ip, r2, r3
 274              	.LVL17:
 275              		.loc 1 122 3 discriminator 1 view .LVU67
 276 001c 8268     		ldr	r2, [r0, #8]
 277 001e 9BB2     		uxth	r3, r3
 278              		.loc 1 122 3 is_stmt 0 discriminator 1 view .LVU68
 279 0020 02F803E0 		strb	lr, [r2, r3]
 280              		.loc 1 122 3 is_stmt 1 discriminator 1 view .LVU69
 281 0024 8388     		ldrh	r3, [r0, #4]
 282              	.LVL18:
 283              		.loc 1 122 3 is_stmt 0 discriminator 1 view .LVU70
ARM GAS  /tmp/ccVqbCXN.s 			page 8


 284 0026 0133     		adds	r3, r3, #1
 285 0028 8380     		strh	r3, [r0, #4]	@ movhi
 286              	.L13:
 287              		.loc 1 122 3 is_stmt 1 discriminator 3 view .LVU71
 123:/home/bdreed43/Documents/gcc/esos32/src/esos_cb.c ****   u8_temp = (uint8_t) (u32_x>>8);
 288              		.loc 1 123 3 discriminator 3 view .LVU72
 289              		.loc 1 123 11 is_stmt 0 discriminator 3 view .LVU73
 290 002a C1F3072E 		ubfx	lr, r1, #8, #8
 291              	.LVL19:
 124:/home/bdreed43/Documents/gcc/esos32/src/esos_cb.c ****   __WRITE_CB_UINT8(pst_CBuffer,u8_temp,u16_end);
 292              		.loc 1 124 3 is_stmt 1 discriminator 3 view .LVU74
 293              		.loc 1 124 3 discriminator 3 view .LVU75
 294 002e 8388     		ldrh	r3, [r0, #4]
 295 0030 B0F800C0 		ldrh	ip, [r0]
 296 0034 6345     		cmp	r3, ip
 297 0036 0CD2     		bcs	.L14
 298              		.loc 1 124 3 discriminator 1 view .LVU76
 299 0038 4288     		ldrh	r2, [r0, #2]
 300 003a 1344     		add	r3, r3, r2
 301 003c 93FBFCF2 		sdiv	r2, r3, ip
 302 0040 0CFB1233 		mls	r3, ip, r2, r3
 303              	.LVL20:
 304              		.loc 1 124 3 discriminator 1 view .LVU77
 305 0044 8268     		ldr	r2, [r0, #8]
 306 0046 9BB2     		uxth	r3, r3
 307              		.loc 1 124 3 is_stmt 0 discriminator 1 view .LVU78
 308 0048 02F803E0 		strb	lr, [r2, r3]
 309              		.loc 1 124 3 is_stmt 1 discriminator 1 view .LVU79
 310 004c 8388     		ldrh	r3, [r0, #4]
 311              	.LVL21:
 312              		.loc 1 124 3 is_stmt 0 discriminator 1 view .LVU80
 313 004e 0133     		adds	r3, r3, #1
 314 0050 8380     		strh	r3, [r0, #4]	@ movhi
 315              	.L14:
 316              		.loc 1 124 3 is_stmt 1 discriminator 3 view .LVU81
 125:/home/bdreed43/Documents/gcc/esos32/src/esos_cb.c ****   u8_temp = (uint8_t) (u32_x>>16);
 317              		.loc 1 125 3 discriminator 3 view .LVU82
 318              		.loc 1 125 11 is_stmt 0 discriminator 3 view .LVU83
 319 0052 C1F3074E 		ubfx	lr, r1, #16, #8
 320              	.LVL22:
 126:/home/bdreed43/Documents/gcc/esos32/src/esos_cb.c ****   __WRITE_CB_UINT8(pst_CBuffer,u8_temp,u16_end);
 321              		.loc 1 126 3 is_stmt 1 discriminator 3 view .LVU84
 322              		.loc 1 126 3 discriminator 3 view .LVU85
 323 0056 8388     		ldrh	r3, [r0, #4]
 324 0058 B0F800C0 		ldrh	ip, [r0]
 325 005c 6345     		cmp	r3, ip
 326 005e 0CD2     		bcs	.L15
 327              		.loc 1 126 3 discriminator 1 view .LVU86
 328 0060 4288     		ldrh	r2, [r0, #2]
 329 0062 1344     		add	r3, r3, r2
 330 0064 93FBFCF2 		sdiv	r2, r3, ip
 331 0068 0CFB1233 		mls	r3, ip, r2, r3
 332              	.LVL23:
 333              		.loc 1 126 3 discriminator 1 view .LVU87
 334 006c 8268     		ldr	r2, [r0, #8]
 335 006e 9BB2     		uxth	r3, r3
 336              		.loc 1 126 3 is_stmt 0 discriminator 1 view .LVU88
ARM GAS  /tmp/ccVqbCXN.s 			page 9


 337 0070 02F803E0 		strb	lr, [r2, r3]
 338              		.loc 1 126 3 is_stmt 1 discriminator 1 view .LVU89
 339 0074 8388     		ldrh	r3, [r0, #4]
 340              	.LVL24:
 341              		.loc 1 126 3 is_stmt 0 discriminator 1 view .LVU90
 342 0076 0133     		adds	r3, r3, #1
 343 0078 8380     		strh	r3, [r0, #4]	@ movhi
 344              	.L15:
 345              		.loc 1 126 3 is_stmt 1 discriminator 3 view .LVU91
 127:/home/bdreed43/Documents/gcc/esos32/src/esos_cb.c ****   u8_temp = (uint8_t) (u32_x>>24);
 346              		.loc 1 127 3 discriminator 3 view .LVU92
 347              		.loc 1 127 11 is_stmt 0 discriminator 3 view .LVU93
 348 007a 090E     		lsrs	r1, r1, #24
 349              	.LVL25:
 128:/home/bdreed43/Documents/gcc/esos32/src/esos_cb.c ****   __WRITE_CB_UINT8(pst_CBuffer,u8_temp,u16_end);
 350              		.loc 1 128 3 is_stmt 1 discriminator 3 view .LVU94
 351              		.loc 1 128 3 discriminator 3 view .LVU95
 352 007c 8388     		ldrh	r3, [r0, #4]
 353 007e B0F800C0 		ldrh	ip, [r0]
 354 0082 6345     		cmp	r3, ip
 355 0084 0BD2     		bcs	.L12
 356              		.loc 1 128 3 discriminator 1 view .LVU96
 357 0086 4288     		ldrh	r2, [r0, #2]
 358 0088 1344     		add	r3, r3, r2
 359 008a 93FBFCF2 		sdiv	r2, r3, ip
 360 008e 0CFB1233 		mls	r3, ip, r2, r3
 361              	.LVL26:
 362              		.loc 1 128 3 discriminator 1 view .LVU97
 363 0092 8268     		ldr	r2, [r0, #8]
 364 0094 9BB2     		uxth	r3, r3
 365              		.loc 1 128 3 is_stmt 0 discriminator 1 view .LVU98
 366 0096 D154     		strb	r1, [r2, r3]
 367              		.loc 1 128 3 is_stmt 1 discriminator 1 view .LVU99
 368 0098 8388     		ldrh	r3, [r0, #4]
 369              	.LVL27:
 370              		.loc 1 128 3 is_stmt 0 discriminator 1 view .LVU100
 371 009a 0133     		adds	r3, r3, #1
 372 009c 8380     		strh	r3, [r0, #4]	@ movhi
 373              		.loc 1 128 3 is_stmt 1 discriminator 1 view .LVU101
 374              	.L12:
 129:/home/bdreed43/Documents/gcc/esos32/src/esos_cb.c **** } // end __esos_CB_WriteUINT32()
 375              		.loc 1 129 1 is_stmt 0 view .LVU102
 376 009e 5DF804FB 		ldr	pc, [sp], #4
 377              		.cfi_endproc
 378              	.LFE4:
 380              		.section	.text.__esos_CB_WriteUINT8Buffer,"ax",%progbits
 381              		.align	1
 382              		.global	__esos_CB_WriteUINT8Buffer
 383              		.syntax unified
 384              		.thumb
 385              		.thumb_func
 387              	__esos_CB_WriteUINT8Buffer:
 388              	.LVL28:
 389              	.LFB5:
 130:/home/bdreed43/Documents/gcc/esos32/src/esos_cb.c **** 
 131:/home/bdreed43/Documents/gcc/esos32/src/esos_cb.c **** void __esos_CB_WriteUINT8Buffer(CBUFFER* pst_CBuffer, uint8_t* pu8_x, uint16_t u16_size ) {
 390              		.loc 1 131 91 is_stmt 1 view -0
ARM GAS  /tmp/ccVqbCXN.s 			page 10


 391              		.cfi_startproc
 392              		@ args = 0, pretend = 0, frame = 0
 393              		@ frame_needed = 0, uses_anonymous_args = 0
 132:/home/bdreed43/Documents/gcc/esos32/src/esos_cb.c ****   uint16_t    u16_i, u16_end;
 394              		.loc 1 132 3 view .LVU104
 133:/home/bdreed43/Documents/gcc/esos32/src/esos_cb.c **** 
 134:/home/bdreed43/Documents/gcc/esos32/src/esos_cb.c ****   for (u16_i=0; u16_i<u16_size; u16_i++) {
 395              		.loc 1 134 3 view .LVU105
 396              		.loc 1 134 13 is_stmt 0 view .LVU106
 397 0000 0023     		movs	r3, #0
 398              	.LVL29:
 399              		.loc 1 134 17 is_stmt 1 view .LVU107
 400              		.loc 1 134 3 is_stmt 0 view .LVU108
 401 0002 9342     		cmp	r3, r2
 402 0004 1DD2     		bcs	.L25
 131:/home/bdreed43/Documents/gcc/esos32/src/esos_cb.c ****   uint16_t    u16_i, u16_end;
 403              		.loc 1 131 91 view .LVU109
 404 0006 10B5     		push	{r4, lr}
 405              	.LCFI2:
 406              		.cfi_def_cfa_offset 8
 407              		.cfi_offset 4, -8
 408              		.cfi_offset 14, -4
 409 0008 03E0     		b	.L21
 410              	.L20:
 135:/home/bdreed43/Documents/gcc/esos32/src/esos_cb.c ****     __WRITE_CB_UINT8(pst_CBuffer, pu8_x[u16_i], u16_end);
 411              		.loc 1 135 5 is_stmt 1 discriminator 3 view .LVU110
 134:/home/bdreed43/Documents/gcc/esos32/src/esos_cb.c ****     __WRITE_CB_UINT8(pst_CBuffer, pu8_x[u16_i], u16_end);
 412              		.loc 1 134 33 discriminator 3 view .LVU111
 134:/home/bdreed43/Documents/gcc/esos32/src/esos_cb.c ****     __WRITE_CB_UINT8(pst_CBuffer, pu8_x[u16_i], u16_end);
 413              		.loc 1 134 38 is_stmt 0 discriminator 3 view .LVU112
 414 000a 0133     		adds	r3, r3, #1
 415              	.LVL30:
 134:/home/bdreed43/Documents/gcc/esos32/src/esos_cb.c ****     __WRITE_CB_UINT8(pst_CBuffer, pu8_x[u16_i], u16_end);
 416              		.loc 1 134 38 discriminator 3 view .LVU113
 417 000c 9BB2     		uxth	r3, r3
 418              	.LVL31:
 134:/home/bdreed43/Documents/gcc/esos32/src/esos_cb.c ****     __WRITE_CB_UINT8(pst_CBuffer, pu8_x[u16_i], u16_end);
 419              		.loc 1 134 17 is_stmt 1 discriminator 3 view .LVU114
 134:/home/bdreed43/Documents/gcc/esos32/src/esos_cb.c ****     __WRITE_CB_UINT8(pst_CBuffer, pu8_x[u16_i], u16_end);
 420              		.loc 1 134 3 is_stmt 0 discriminator 3 view .LVU115
 421 000e 9342     		cmp	r3, r2
 422 0010 16D2     		bcs	.L26
 423              	.L21:
 424              		.loc 1 135 5 is_stmt 1 view .LVU116
 425              		.loc 1 135 5 view .LVU117
 426 0012 B0F804C0 		ldrh	ip, [r0, #4]
 427 0016 0488     		ldrh	r4, [r0]
 428 0018 A445     		cmp	ip, r4
 429 001a F6D2     		bcs	.L20
 430              		.loc 1 135 5 discriminator 1 view .LVU118
 431 001c B0F802E0 		ldrh	lr, [r0, #2]
 432 0020 F444     		add	ip, ip, lr
 433 0022 9CFBF4FE 		sdiv	lr, ip, r4
 434 0026 04FB1ECC 		mls	ip, r4, lr, ip
 435              	.LVL32:
 436              		.loc 1 135 5 discriminator 1 view .LVU119
 437 002a 8468     		ldr	r4, [r0, #8]
ARM GAS  /tmp/ccVqbCXN.s 			page 11


 438 002c 1FFA8CFC 		uxth	ip, ip
 439              		.loc 1 135 5 is_stmt 0 discriminator 1 view .LVU120
 440 0030 11F803E0 		ldrb	lr, [r1, r3]	@ zero_extendqisi2
 441 0034 04F80CE0 		strb	lr, [r4, ip]
 442              		.loc 1 135 5 is_stmt 1 discriminator 1 view .LVU121
 443 0038 8488     		ldrh	r4, [r0, #4]
 444 003a 0134     		adds	r4, r4, #1
 445 003c 8480     		strh	r4, [r0, #4]	@ movhi
 446 003e E4E7     		b	.L20
 447              	.LVL33:
 448              	.L26:
 136:/home/bdreed43/Documents/gcc/esos32/src/esos_cb.c ****   }
 137:/home/bdreed43/Documents/gcc/esos32/src/esos_cb.c **** } // end __esos_CB_WriteUINT8Buffer()
 449              		.loc 1 137 1 is_stmt 0 view .LVU122
 450 0040 10BD     		pop	{r4, pc}
 451              	.L25:
 452              	.LCFI3:
 453              		.cfi_def_cfa_offset 0
 454              		.cfi_restore 4
 455              		.cfi_restore 14
 456              		.loc 1 137 1 view .LVU123
 457 0042 7047     		bx	lr
 458              		.cfi_endproc
 459              	.LFE5:
 461              		.section	.text.__esos_CB_ReadUINT8,"ax",%progbits
 462              		.align	1
 463              		.global	__esos_CB_ReadUINT8
 464              		.syntax unified
 465              		.thumb
 466              		.thumb_func
 468              	__esos_CB_ReadUINT8:
 469              	.LVL34:
 470              	.LFB6:
 138:/home/bdreed43/Documents/gcc/esos32/src/esos_cb.c **** 
 139:/home/bdreed43/Documents/gcc/esos32/src/esos_cb.c **** /***************************************************************
 140:/home/bdreed43/Documents/gcc/esos32/src/esos_cb.c **** **** READERs
 141:/home/bdreed43/Documents/gcc/esos32/src/esos_cb.c **** ***************************************************************/
 142:/home/bdreed43/Documents/gcc/esos32/src/esos_cb.c **** uint8_t __esos_CB_ReadUINT8(CBUFFER* pst_CBuffer ) {
 471              		.loc 1 142 52 is_stmt 1 view -0
 472              		.cfi_startproc
 473              		@ args = 0, pretend = 0, frame = 0
 474              		@ frame_needed = 0, uses_anonymous_args = 0
 475              		@ link register save eliminated.
 476              		.loc 1 142 52 is_stmt 0 view .LVU125
 477 0000 0346     		mov	r3, r0
 143:/home/bdreed43/Documents/gcc/esos32/src/esos_cb.c ****   uint8_t     u8_retval;
 478              		.loc 1 143 3 is_stmt 1 view .LVU126
 144:/home/bdreed43/Documents/gcc/esos32/src/esos_cb.c **** 
 145:/home/bdreed43/Documents/gcc/esos32/src/esos_cb.c ****   __READ_CB_UINT8(pst_CBuffer, u8_retval);
 479              		.loc 1 145 3 view .LVU127
 480              		.loc 1 145 3 view .LVU128
 481 0002 8168     		ldr	r1, [r0, #8]
 482 0004 4288     		ldrh	r2, [r0, #2]
 483 0006 885C     		ldrb	r0, [r1, r2]	@ zero_extendqisi2
 484              	.LVL35:
 485              		.loc 1 145 3 view .LVU129
 486 0008 0132     		adds	r2, r2, #1
ARM GAS  /tmp/ccVqbCXN.s 			page 12


 487 000a 1988     		ldrh	r1, [r3]
 488 000c 92FBF1FC 		sdiv	ip, r2, r1
 489 0010 01FB1C22 		mls	r2, r1, ip, r2
 490 0014 5A80     		strh	r2, [r3, #2]	@ movhi
 491              		.loc 1 145 3 view .LVU130
 492 0016 9A88     		ldrh	r2, [r3, #4]
 493 0018 013A     		subs	r2, r2, #1
 494 001a 9A80     		strh	r2, [r3, #4]	@ movhi
 495              		.loc 1 145 3 view .LVU131
 146:/home/bdreed43/Documents/gcc/esos32/src/esos_cb.c ****   return(u8_retval);
 496              		.loc 1 146 3 view .LVU132
 147:/home/bdreed43/Documents/gcc/esos32/src/esos_cb.c **** } // __esos_CB_ReadUINT8()
 497              		.loc 1 147 1 is_stmt 0 view .LVU133
 498 001c 7047     		bx	lr
 499              		.cfi_endproc
 500              	.LFE6:
 502              		.section	.text.__esos_CB_ReadUINT16,"ax",%progbits
 503              		.align	1
 504              		.global	__esos_CB_ReadUINT16
 505              		.syntax unified
 506              		.thumb
 507              		.thumb_func
 509              	__esos_CB_ReadUINT16:
 510              	.LVL36:
 511              	.LFB7:
 148:/home/bdreed43/Documents/gcc/esos32/src/esos_cb.c **** 
 149:/home/bdreed43/Documents/gcc/esos32/src/esos_cb.c **** uint16_t __esos_CB_ReadUINT16(CBUFFER* pst_CBuffer ) {
 512              		.loc 1 149 54 is_stmt 1 view -0
 513              		.cfi_startproc
 514              		@ args = 0, pretend = 0, frame = 0
 515              		@ frame_needed = 0, uses_anonymous_args = 0
 516              		.loc 1 149 54 is_stmt 0 view .LVU135
 517 0000 10B5     		push	{r4, lr}
 518              	.LCFI4:
 519              		.cfi_def_cfa_offset 8
 520              		.cfi_offset 4, -8
 521              		.cfi_offset 14, -4
 150:/home/bdreed43/Documents/gcc/esos32/src/esos_cb.c ****   uint8_t     u8_temp;
 522              		.loc 1 150 3 is_stmt 1 view .LVU136
 151:/home/bdreed43/Documents/gcc/esos32/src/esos_cb.c ****   uint16_t    u16_retval;
 523              		.loc 1 151 3 view .LVU137
 152:/home/bdreed43/Documents/gcc/esos32/src/esos_cb.c **** 
 153:/home/bdreed43/Documents/gcc/esos32/src/esos_cb.c ****   __READ_CB_UINT8(pst_CBuffer, u8_temp);
 524              		.loc 1 153 3 view .LVU138
 525              		.loc 1 153 3 view .LVU139
 526 0002 8468     		ldr	r4, [r0, #8]
 527 0004 4388     		ldrh	r3, [r0, #2]
 528 0006 14F803C0 		ldrb	ip, [r4, r3]	@ zero_extendqisi2
 529              	.LVL37:
 530              		.loc 1 153 3 view .LVU140
 531 000a 0133     		adds	r3, r3, #1
 532 000c 0188     		ldrh	r1, [r0]
 533 000e 93FBF1F2 		sdiv	r2, r3, r1
 534 0012 01FB1233 		mls	r3, r1, r2, r3
 535 0016 9BB2     		uxth	r3, r3
 536 0018 4380     		strh	r3, [r0, #2]	@ movhi
 537              		.loc 1 153 3 view .LVU141
ARM GAS  /tmp/ccVqbCXN.s 			page 13


 538 001a 8288     		ldrh	r2, [r0, #4]
 539 001c 013A     		subs	r2, r2, #1
 540 001e 92B2     		uxth	r2, r2
 541 0020 8280     		strh	r2, [r0, #4]	@ movhi
 542              		.loc 1 153 3 view .LVU142
 154:/home/bdreed43/Documents/gcc/esos32/src/esos_cb.c ****   u16_retval = (uint16_t) u8_temp;
 543              		.loc 1 154 3 view .LVU143
 544              	.LVL38:
 155:/home/bdreed43/Documents/gcc/esos32/src/esos_cb.c ****   __READ_CB_UINT8(pst_CBuffer, u8_temp);
 545              		.loc 1 155 3 view .LVU144
 546              		.loc 1 155 3 view .LVU145
 547 0022 E45C     		ldrb	r4, [r4, r3]	@ zero_extendqisi2
 548              	.LVL39:
 549              		.loc 1 155 3 view .LVU146
 550 0024 0133     		adds	r3, r3, #1
 551 0026 93FBF1FE 		sdiv	lr, r3, r1
 552 002a 01FB1E33 		mls	r3, r1, lr, r3
 553 002e 4380     		strh	r3, [r0, #2]	@ movhi
 554              		.loc 1 155 3 view .LVU147
 555 0030 013A     		subs	r2, r2, #1
 556 0032 8280     		strh	r2, [r0, #4]	@ movhi
 557              		.loc 1 155 3 view .LVU148
 156:/home/bdreed43/Documents/gcc/esos32/src/esos_cb.c ****   u16_retval += ((uint16_t) u8_temp)<<8;
 558              		.loc 1 156 3 view .LVU149
 559              		.loc 1 156 14 is_stmt 0 view .LVU150
 560 0034 0CEB0420 		add	r0, ip, r4, lsl #8
 561              	.LVL40:
 157:/home/bdreed43/Documents/gcc/esos32/src/esos_cb.c ****   return (u16_retval);
 562              		.loc 1 157 3 is_stmt 1 view .LVU151
 158:/home/bdreed43/Documents/gcc/esos32/src/esos_cb.c **** } // __esos_CB_ReadUINT16()
 563              		.loc 1 158 1 is_stmt 0 view .LVU152
 564 0038 80B2     		uxth	r0, r0
 565              		.loc 1 158 1 view .LVU153
 566 003a 10BD     		pop	{r4, pc}
 567              		.loc 1 158 1 view .LVU154
 568              		.cfi_endproc
 569              	.LFE7:
 571              		.section	.text.__esos_CB_ReadUINT32,"ax",%progbits
 572              		.align	1
 573              		.global	__esos_CB_ReadUINT32
 574              		.syntax unified
 575              		.thumb
 576              		.thumb_func
 578              	__esos_CB_ReadUINT32:
 579              	.LVL41:
 580              	.LFB8:
 159:/home/bdreed43/Documents/gcc/esos32/src/esos_cb.c **** 
 160:/home/bdreed43/Documents/gcc/esos32/src/esos_cb.c **** uint32_t __esos_CB_ReadUINT32(CBUFFER* pst_CBuffer ) {
 581              		.loc 1 160 54 is_stmt 1 view -0
 582              		.cfi_startproc
 583              		@ args = 0, pretend = 0, frame = 0
 584              		@ frame_needed = 0, uses_anonymous_args = 0
 585              		.loc 1 160 54 is_stmt 0 view .LVU156
 586 0000 30B5     		push	{r4, r5, lr}
 587              	.LCFI5:
 588              		.cfi_def_cfa_offset 12
 589              		.cfi_offset 4, -12
ARM GAS  /tmp/ccVqbCXN.s 			page 14


 590              		.cfi_offset 5, -8
 591              		.cfi_offset 14, -4
 161:/home/bdreed43/Documents/gcc/esos32/src/esos_cb.c ****   uint8_t     u8_temp;
 592              		.loc 1 161 3 is_stmt 1 view .LVU157
 162:/home/bdreed43/Documents/gcc/esos32/src/esos_cb.c ****   uint32_t    u32_retval;
 593              		.loc 1 162 3 view .LVU158
 163:/home/bdreed43/Documents/gcc/esos32/src/esos_cb.c **** 
 164:/home/bdreed43/Documents/gcc/esos32/src/esos_cb.c ****   __READ_CB_UINT8(pst_CBuffer, u8_temp);
 594              		.loc 1 164 3 view .LVU159
 595              		.loc 1 164 3 view .LVU160
 596 0002 8468     		ldr	r4, [r0, #8]
 597 0004 4388     		ldrh	r3, [r0, #2]
 598 0006 14F803C0 		ldrb	ip, [r4, r3]	@ zero_extendqisi2
 599              	.LVL42:
 600              		.loc 1 164 3 view .LVU161
 601 000a 0133     		adds	r3, r3, #1
 602 000c 0188     		ldrh	r1, [r0]
 603 000e 93FBF1F2 		sdiv	r2, r3, r1
 604 0012 01FB1233 		mls	r3, r1, r2, r3
 605 0016 9BB2     		uxth	r3, r3
 606 0018 4380     		strh	r3, [r0, #2]	@ movhi
 607              		.loc 1 164 3 view .LVU162
 608 001a 8288     		ldrh	r2, [r0, #4]
 609 001c 013A     		subs	r2, r2, #1
 610 001e 92B2     		uxth	r2, r2
 611 0020 8280     		strh	r2, [r0, #4]	@ movhi
 612              		.loc 1 164 3 view .LVU163
 165:/home/bdreed43/Documents/gcc/esos32/src/esos_cb.c ****   u32_retval = (uint32_t) u8_temp;
 613              		.loc 1 165 3 view .LVU164
 614              	.LVL43:
 166:/home/bdreed43/Documents/gcc/esos32/src/esos_cb.c ****   __READ_CB_UINT8(pst_CBuffer, u8_temp);
 615              		.loc 1 166 3 view .LVU165
 616              		.loc 1 166 3 view .LVU166
 617 0022 E55C     		ldrb	r5, [r4, r3]	@ zero_extendqisi2
 618              	.LVL44:
 619              		.loc 1 166 3 view .LVU167
 620 0024 0133     		adds	r3, r3, #1
 621 0026 93FBF1FE 		sdiv	lr, r3, r1
 622 002a 01FB1E33 		mls	r3, r1, lr, r3
 623 002e 9BB2     		uxth	r3, r3
 624 0030 4380     		strh	r3, [r0, #2]	@ movhi
 625              		.loc 1 166 3 view .LVU168
 626 0032 013A     		subs	r2, r2, #1
 627 0034 92B2     		uxth	r2, r2
 628 0036 8280     		strh	r2, [r0, #4]	@ movhi
 629              		.loc 1 166 3 view .LVU169
 167:/home/bdreed43/Documents/gcc/esos32/src/esos_cb.c ****   u32_retval += (((uint32_t) u8_temp)<<8);
 630              		.loc 1 167 3 view .LVU170
 631              		.loc 1 167 14 is_stmt 0 view .LVU171
 632 0038 0CEB052C 		add	ip, ip, r5, lsl #8
 633              	.LVL45:
 168:/home/bdreed43/Documents/gcc/esos32/src/esos_cb.c ****   __READ_CB_UINT8(pst_CBuffer, u8_temp);
 634              		.loc 1 168 3 is_stmt 1 view .LVU172
 635              		.loc 1 168 3 view .LVU173
 636 003c 14F803E0 		ldrb	lr, [r4, r3]	@ zero_extendqisi2
 637              	.LVL46:
 638              		.loc 1 168 3 view .LVU174
ARM GAS  /tmp/ccVqbCXN.s 			page 15


 639 0040 0133     		adds	r3, r3, #1
 640 0042 93FBF1F5 		sdiv	r5, r3, r1
 641 0046 01FB1533 		mls	r3, r1, r5, r3
 642 004a 9BB2     		uxth	r3, r3
 643 004c 4380     		strh	r3, [r0, #2]	@ movhi
 644              		.loc 1 168 3 view .LVU175
 645 004e 013A     		subs	r2, r2, #1
 646 0050 92B2     		uxth	r2, r2
 647 0052 8280     		strh	r2, [r0, #4]	@ movhi
 648              		.loc 1 168 3 view .LVU176
 169:/home/bdreed43/Documents/gcc/esos32/src/esos_cb.c ****   u32_retval += (((uint32_t) u8_temp)<<16);
 649              		.loc 1 169 3 view .LVU177
 650              		.loc 1 169 14 is_stmt 0 view .LVU178
 651 0054 0CEB0E4C 		add	ip, ip, lr, lsl #16
 652              	.LVL47:
 170:/home/bdreed43/Documents/gcc/esos32/src/esos_cb.c ****   __READ_CB_UINT8(pst_CBuffer, u8_temp);
 653              		.loc 1 170 3 is_stmt 1 view .LVU179
 654              		.loc 1 170 3 view .LVU180
 655 0058 E45C     		ldrb	r4, [r4, r3]	@ zero_extendqisi2
 656              	.LVL48:
 657              		.loc 1 170 3 view .LVU181
 658 005a 0133     		adds	r3, r3, #1
 659 005c 93FBF1FE 		sdiv	lr, r3, r1
 660 0060 01FB1E33 		mls	r3, r1, lr, r3
 661 0064 4380     		strh	r3, [r0, #2]	@ movhi
 662              		.loc 1 170 3 view .LVU182
 663 0066 013A     		subs	r2, r2, #1
 664 0068 8280     		strh	r2, [r0, #4]	@ movhi
 665              		.loc 1 170 3 view .LVU183
 171:/home/bdreed43/Documents/gcc/esos32/src/esos_cb.c ****   u32_retval += (((uint32_t) u8_temp)<<24);
 666              		.loc 1 171 3 view .LVU184
 667              	.LVL49:
 172:/home/bdreed43/Documents/gcc/esos32/src/esos_cb.c ****   return (u32_retval);
 668              		.loc 1 172 3 view .LVU185
 173:/home/bdreed43/Documents/gcc/esos32/src/esos_cb.c **** } // __esos_CB_ReadUINT32()
 669              		.loc 1 173 1 is_stmt 0 view .LVU186
 670 006a 0CEB0460 		add	r0, ip, r4, lsl #24
 671              	.LVL50:
 672              		.loc 1 173 1 view .LVU187
 673 006e 30BD     		pop	{r4, r5, pc}
 674              		.loc 1 173 1 view .LVU188
 675              		.cfi_endproc
 676              	.LFE8:
 678              		.section	.text.__esos_CB_ReadUINT8Buffer,"ax",%progbits
 679              		.align	1
 680              		.global	__esos_CB_ReadUINT8Buffer
 681              		.syntax unified
 682              		.thumb
 683              		.thumb_func
 685              	__esos_CB_ReadUINT8Buffer:
 686              	.LVL51:
 687              	.LFB9:
 174:/home/bdreed43/Documents/gcc/esos32/src/esos_cb.c **** 
 175:/home/bdreed43/Documents/gcc/esos32/src/esos_cb.c **** 
 176:/home/bdreed43/Documents/gcc/esos32/src/esos_cb.c **** void __esos_CB_ReadUINT8Buffer(CBUFFER* pst_CBuffer, uint8_t* pu8_x, uint16_t u16_size ) {
 688              		.loc 1 176 90 is_stmt 1 view -0
 689              		.cfi_startproc
ARM GAS  /tmp/ccVqbCXN.s 			page 16


 690              		@ args = 0, pretend = 0, frame = 0
 691              		@ frame_needed = 0, uses_anonymous_args = 0
 177:/home/bdreed43/Documents/gcc/esos32/src/esos_cb.c ****   uint16_t    u16_i;
 692              		.loc 1 177 3 view .LVU190
 178:/home/bdreed43/Documents/gcc/esos32/src/esos_cb.c **** 
 179:/home/bdreed43/Documents/gcc/esos32/src/esos_cb.c ****   for (u16_i=0; u16_i<u16_size; u16_i++) {
 693              		.loc 1 179 3 view .LVU191
 694              		.loc 1 179 13 is_stmt 0 view .LVU192
 695 0000 4FF0000C 		mov	ip, #0
 696              	.LVL52:
 697              		.loc 1 179 17 is_stmt 1 view .LVU193
 698              		.loc 1 179 3 is_stmt 0 view .LVU194
 699 0004 9445     		cmp	ip, r2
 700 0006 18D2     		bcs	.L38
 176:/home/bdreed43/Documents/gcc/esos32/src/esos_cb.c ****   uint16_t    u16_i;
 701              		.loc 1 176 90 view .LVU195
 702 0008 10B5     		push	{r4, lr}
 703              	.LCFI6:
 704              		.cfi_def_cfa_offset 8
 705              		.cfi_offset 4, -8
 706              		.cfi_offset 14, -4
 707              	.L34:
 180:/home/bdreed43/Documents/gcc/esos32/src/esos_cb.c ****     __READ_CB_UINT8(pst_CBuffer, pu8_x[u16_i]);
 708              		.loc 1 180 5 is_stmt 1 discriminator 3 view .LVU196
 709              		.loc 1 180 5 discriminator 3 view .LVU197
 710 000a 8468     		ldr	r4, [r0, #8]
 711 000c 4388     		ldrh	r3, [r0, #2]
 712 000e E35C     		ldrb	r3, [r4, r3]	@ zero_extendqisi2
 713 0010 01F80C30 		strb	r3, [r1, ip]
 714              		.loc 1 180 5 discriminator 3 view .LVU198
 715 0014 4388     		ldrh	r3, [r0, #2]
 716 0016 0133     		adds	r3, r3, #1
 717 0018 B0F800E0 		ldrh	lr, [r0]
 718 001c 93FBFEF4 		sdiv	r4, r3, lr
 719 0020 0EFB1433 		mls	r3, lr, r4, r3
 720 0024 4380     		strh	r3, [r0, #2]	@ movhi
 721              		.loc 1 180 5 discriminator 3 view .LVU199
 722 0026 8388     		ldrh	r3, [r0, #4]
 723 0028 013B     		subs	r3, r3, #1
 724 002a 8380     		strh	r3, [r0, #4]	@ movhi
 725              		.loc 1 180 5 discriminator 3 view .LVU200
 179:/home/bdreed43/Documents/gcc/esos32/src/esos_cb.c ****     __READ_CB_UINT8(pst_CBuffer, pu8_x[u16_i]);
 726              		.loc 1 179 33 discriminator 3 view .LVU201
 179:/home/bdreed43/Documents/gcc/esos32/src/esos_cb.c ****     __READ_CB_UINT8(pst_CBuffer, pu8_x[u16_i]);
 727              		.loc 1 179 38 is_stmt 0 discriminator 3 view .LVU202
 728 002c 0CF1010C 		add	ip, ip, #1
 729              	.LVL53:
 179:/home/bdreed43/Documents/gcc/esos32/src/esos_cb.c ****     __READ_CB_UINT8(pst_CBuffer, pu8_x[u16_i]);
 730              		.loc 1 179 38 discriminator 3 view .LVU203
 731 0030 1FFA8CFC 		uxth	ip, ip
 732              	.LVL54:
 179:/home/bdreed43/Documents/gcc/esos32/src/esos_cb.c ****     __READ_CB_UINT8(pst_CBuffer, pu8_x[u16_i]);
 733              		.loc 1 179 17 is_stmt 1 discriminator 3 view .LVU204
 179:/home/bdreed43/Documents/gcc/esos32/src/esos_cb.c ****     __READ_CB_UINT8(pst_CBuffer, pu8_x[u16_i]);
 734              		.loc 1 179 3 is_stmt 0 discriminator 3 view .LVU205
 735 0034 9445     		cmp	ip, r2
 736 0036 E8D3     		bcc	.L34
ARM GAS  /tmp/ccVqbCXN.s 			page 17


 181:/home/bdreed43/Documents/gcc/esos32/src/esos_cb.c ****   }
 182:/home/bdreed43/Documents/gcc/esos32/src/esos_cb.c **** } // end __esos_CB_ReadUINT8Buffer()
 737              		.loc 1 182 1 view .LVU206
 738 0038 10BD     		pop	{r4, pc}
 739              	.L38:
 740              	.LCFI7:
 741              		.cfi_def_cfa_offset 0
 742              		.cfi_restore 4
 743              		.cfi_restore 14
 744              		.loc 1 182 1 view .LVU207
 745 003a 7047     		bx	lr
 746              		.cfi_endproc
 747              	.LFE9:
 749              		.text
 750              	.Letext0:
 751              		.file 2 "/home/bdreed43/Documents/gcc/gcc-arm-none-eabi-10.3-2021.10/arm-none-eabi/include/machine
 752              		.file 3 "/home/bdreed43/Documents/gcc/gcc-arm-none-eabi-10.3-2021.10/arm-none-eabi/include/sys/_st
 753              		.file 4 "/home/bdreed43/Documents/gcc/esos32/include/esos_cb.h"
ARM GAS  /tmp/ccVqbCXN.s 			page 18

