ARM GAS  /tmp/ccyXqcsa.s 			page 1


   1              		.cpu cortex-m4
   2              		.arch armv7e-m
   3              		.fpu fpv4-sp-d16
   4              		.eabi_attribute 27, 1
   5              		.eabi_attribute 28, 1
   6              		.eabi_attribute 20, 1
   7              		.eabi_attribute 21, 1
   8              		.eabi_attribute 23, 3
   9              		.eabi_attribute 24, 1
  10              		.eabi_attribute 25, 1
  11              		.eabi_attribute 26, 1
  12              		.eabi_attribute 30, 1
  13              		.eabi_attribute 34, 1
  14              		.eabi_attribute 18, 4
  15              		.file	"m4_timer_uart_app.c"
  16              		.text
  17              	.Ltext0:
  18              		.cfi_sections	.debug_frame
  19              		.section	.text.TOGGLE_LD2,"ax",%progbits
  20              		.align	1
  21              		.syntax unified
  22              		.thumb
  23              		.thumb_func
  25              	TOGGLE_LD2:
  26              	.LFB5:
  27              		.file 1 "src/embsysS20.h"
   1:src/embsysS20.h **** // HINT for TASK #2 -- FALL 2022
   2:src/embsysS20.h **** 
   3:src/embsysS20.h **** #ifndef EMBSYSS20_H
   4:src/embsysS20.h **** #define EMBSYSS20_H
   5:src/embsysS20.h **** 
   6:src/embsysS20.h **** #ifdef __cplusplus
   7:src/embsysS20.h **** extern "C" {
   8:src/embsysS20.h **** #endif
   9:src/embsysS20.h **** 
  10:src/embsysS20.h **** //************** I N C L U D E S *****************
  11:src/embsysS20.h **** 
  12:src/embsysS20.h **** #include <errno.h>
  13:src/embsysS20.h **** #include <stdio.h>
  14:src/embsysS20.h **** #include <unistd.h>
  15:src/embsysS20.h **** #include "embsysS20.h"
  16:src/embsysS20.h **** #include <libopencm3/stm32/rcc.h>
  17:src/embsysS20.h **** #include <libopencm3/stm32/gpio.h>
  18:src/embsysS20.h **** #include <libopencm3/cm3/nvic.h>
  19:src/embsysS20.h **** #include <libopencm3/stm32/exti.h>
  20:src/embsysS20.h **** #include <libopencm3/stm32/flash.h>
  21:src/embsysS20.h **** #include <libopencm3/stm32/timer.h>
  22:src/embsysS20.h **** #include <string.h>
  23:src/embsysS20.h **** #include <stdlib.h>
  24:src/embsysS20.h **** #include <stdbool.h>
  25:src/embsysS20.h **** 
  26:src/embsysS20.h **** 
  27:src/embsysS20.h **** //************** G L O B A L S *****************
  28:src/embsysS20.h **** 
  29:src/embsysS20.h **** #define LD2_Pin GPIO5 // Connected to PA5
  30:src/embsysS20.h **** #define LD2_Port GPIOA
  31:src/embsysS20.h **** #define B1_Pin GPIO13 // Connected to PC13
ARM GAS  /tmp/ccyXqcsa.s 			page 2


  32:src/embsysS20.h **** #define B1_Port GPIOC
  33:src/embsysS20.h **** 
  34:src/embsysS20.h **** 
  35:src/embsysS20.h **** //********* S U P P O R T     F U N C T I O N S *****************
  36:src/embsysS20.h **** 
  37:src/embsysS20.h **** static void TURN_ON_LD2(void){
  38:src/embsysS20.h **** 	gpio_set(LD2_Port, LD2_Pin);
  39:src/embsysS20.h **** }
  40:src/embsysS20.h **** 
  41:src/embsysS20.h **** static void TURN_OFF_LD2(void){
  42:src/embsysS20.h **** 	gpio_clear(LD2_Port, LD2_Pin);
  43:src/embsysS20.h **** }
  44:src/embsysS20.h **** 
  45:src/embsysS20.h **** static void TOGGLE_LD2(void){
  28              		.loc 1 45 29 view -0
  29              		.cfi_startproc
  30              		@ args = 0, pretend = 0, frame = 0
  31              		@ frame_needed = 0, uses_anonymous_args = 0
  32 0000 08B5     		push	{r3, lr}
  33              	.LCFI0:
  34              		.cfi_def_cfa_offset 8
  35              		.cfi_offset 3, -8
  36              		.cfi_offset 14, -4
  46:src/embsysS20.h **** 	gpio_toggle(LD2_Port, LD2_Pin);
  37              		.loc 1 46 2 view .LVU1
  38 0002 2021     		movs	r1, #32
  39 0004 4FF09040 		mov	r0, #1207959552
  40 0008 FFF7FEFF 		bl	gpio_toggle
  41              	.LVL0:
  47:src/embsysS20.h **** }
  42              		.loc 1 47 1 is_stmt 0 view .LVU2
  43 000c 08BD     		pop	{r3, pc}
  44              		.cfi_endproc
  45              	.LFE5:
  47              		.section	.text.IS_B1_RELEASED,"ax",%progbits
  48              		.align	1
  49              		.syntax unified
  50              		.thumb
  51              		.thumb_func
  53              	IS_B1_RELEASED:
  54              	.LFB8:
  48:src/embsysS20.h **** 
  49:src/embsysS20.h **** static bool IS_LD2_SET(void){
  50:src/embsysS20.h **** 	if (gpio_get(LD2_Port, LD2_Pin) == 1)
  51:src/embsysS20.h **** 		return true;
  52:src/embsysS20.h **** 	else
  53:src/embsysS20.h **** 		return false;
  54:src/embsysS20.h **** }
  55:src/embsysS20.h **** 
  56:src/embsysS20.h **** static bool IS_LD2_RESET(void){
  57:src/embsysS20.h **** 	if (gpio_get(LD2_Port, LD2_Pin) == 0)
  58:src/embsysS20.h **** 		return true;
  59:src/embsysS20.h **** 	else
  60:src/embsysS20.h **** 		return false;
  61:src/embsysS20.h **** }
  62:src/embsysS20.h **** 
  63:src/embsysS20.h **** static bool IS_B1_RELEASED(void){
ARM GAS  /tmp/ccyXqcsa.s 			page 3


  55              		.loc 1 63 33 is_stmt 1 view -0
  56              		.cfi_startproc
  57              		@ args = 0, pretend = 0, frame = 0
  58              		@ frame_needed = 0, uses_anonymous_args = 0
  59 0000 08B5     		push	{r3, lr}
  60              	.LCFI1:
  61              		.cfi_def_cfa_offset 8
  62              		.cfi_offset 3, -8
  63              		.cfi_offset 14, -4
  64:src/embsysS20.h **** 	if (gpio_get(B1_Port, B1_Pin) > 0)
  64              		.loc 1 64 2 view .LVU4
  65              		.loc 1 64 6 is_stmt 0 view .LVU5
  66 0002 4FF40051 		mov	r1, #8192
  67 0006 0448     		ldr	r0, .L7
  68 0008 FFF7FEFF 		bl	gpio_get
  69              	.LVL1:
  70              		.loc 1 64 5 view .LVU6
  71 000c 08B1     		cbz	r0, .L5
  65:src/embsysS20.h **** 		return true;
  72              		.loc 1 65 10 view .LVU7
  73 000e 0120     		movs	r0, #1
  74              	.L4:
  66:src/embsysS20.h **** 	else
  67:src/embsysS20.h **** 		return false;
  68:src/embsysS20.h **** }
  75              		.loc 1 68 1 view .LVU8
  76 0010 08BD     		pop	{r3, pc}
  77              	.L5:
  67:src/embsysS20.h **** }
  78              		.loc 1 67 10 view .LVU9
  79 0012 0020     		movs	r0, #0
  80 0014 FCE7     		b	.L4
  81              	.L8:
  82 0016 00BF     		.align	2
  83              	.L7:
  84 0018 00080048 		.word	1207961600
  85              		.cfi_endproc
  86              	.LFE8:
  88              		.section	.text.flash_LED,"ax",%progbits
  89              		.align	1
  90              		.global	flash_LED
  91              		.syntax unified
  92              		.thumb
  93              		.thumb_func
  95              	flash_LED:
  96              	.LVL2:
  97              	.LFB10:
  98              		.file 2 "src/m4_timer_uart_app.c"
   1:src/m4_timer_uart_app.c **** /*
   2:src/m4_timer_uart_app.c ****  * "Copyright (c) 2019 J. W. Bruce ("AUTHOR(S)")"
   3:src/m4_timer_uart_app.c ****  * All rights reserved.
   4:src/m4_timer_uart_app.c ****  * (J. W. Bruce, jwbruce_AT_tntech.edu, Tennessee Tech University)
   5:src/m4_timer_uart_app.c ****  *
   6:src/m4_timer_uart_app.c ****  * Permission to use, copy, modify, and distribute this software and its
   7:src/m4_timer_uart_app.c ****  * documentation for any purpose, without fee, and without written agreement is
   8:src/m4_timer_uart_app.c ****  * hereby granted, provided that the above copyright notice, the following
   9:src/m4_timer_uart_app.c ****  * two paragraphs and the authors appear in all copies of this software.
ARM GAS  /tmp/ccyXqcsa.s 			page 4


  10:src/m4_timer_uart_app.c ****  *
  11:src/m4_timer_uart_app.c ****  * IN NO EVENT SHALL THE "AUTHORS" BE LIABLE TO ANY PARTY FOR
  12:src/m4_timer_uart_app.c ****  * DIRECT, INDIRECT, SPECIAL, INCIDENTAL, OR CONSEQUENTIAL DAMAGES ARISING OUT
  13:src/m4_timer_uart_app.c ****  * OF THE USE OF THIS SOFTWARE AND ITS DOCUMENTATION, EVEN IF THE "AUTHORS"
  14:src/m4_timer_uart_app.c ****  * HAS BEEN ADVISED OF THE POSSIBILITY OF SUCH DAMAGE.
  15:src/m4_timer_uart_app.c ****  *
  16:src/m4_timer_uart_app.c ****  * THE "AUTHORS" SPECIFICALLY DISCLAIMS ANY WARRANTIES,
  17:src/m4_timer_uart_app.c ****  * INCLUDING, BUT NOT LIMITED TO, THE IMPLIED WARRANTIES OF MERCHANTABILITY
  18:src/m4_timer_uart_app.c ****  * AND FITNESS FOR A PARTICULAR PURPOSE.  THE SOFTWARE PROVIDED HEREUNDER IS
  19:src/m4_timer_uart_app.c ****  * ON AN "AS IS" BASIS, AND THE "AUTHORS" HAS NO OBLIGATION TO
  20:src/m4_timer_uart_app.c ****  * PROVIDE MAINTENANCE, SUPPORT, UPDATES, ENHANCEMENTS, OR MODIFICATIONS."
  21:src/m4_timer_uart_app.c ****  *
  22:src/m4_timer_uart_app.c ****  * Please maintain this header in its entirety when copying/modifying
  23:src/m4_timer_uart_app.c ****  * these files.
  24:src/m4_timer_uart_app.c ****  *
  25:src/m4_timer_uart_app.c ****  *
  26:src/m4_timer_uart_app.c ****  */
  27:src/m4_timer_uart_app.c **** 
  28:src/m4_timer_uart_app.c **** // #define ESOS_USE_IRQS
  29:src/m4_timer_uart_app.c **** 
  30:src/m4_timer_uart_app.c **** // INCLUDEs go here  (First include the main esos.h file)
  31:src/m4_timer_uart_app.c **** //      After that, the user can include what they need
  32:src/m4_timer_uart_app.c **** #include    "esos.h"
  33:src/m4_timer_uart_app.c **** #include  "embsysS20.h"
  34:src/m4_timer_uart_app.c **** #ifdef __linux
  35:src/m4_timer_uart_app.c **** #include    "esos_pc.h"
  36:src/m4_timer_uart_app.c **** #include    "esos_pc_stdio.h"
  37:src/m4_timer_uart_app.c **** // INCLUDE these so our printf and other PC hacks work
  38:src/m4_timer_uart_app.c **** #include <stdio.h>
  39:src/m4_timer_uart_app.c **** #include <sys/select.h>
  40:src/m4_timer_uart_app.c **** #include <termios.h>
  41:src/m4_timer_uart_app.c **** #include <unistd.h>
  42:src/m4_timer_uart_app.c **** #include <stdlib>
  43:src/m4_timer_uart_app.c **** #else
  44:src/m4_timer_uart_app.c **** #include    "esos_stm32l4.h"
  45:src/m4_timer_uart_app.c **** #include    "esos_stm32l4_rs232.h"
  46:src/m4_timer_uart_app.c **** #endif
  47:src/m4_timer_uart_app.c **** 
  48:src/m4_timer_uart_app.c **** // Defines
  49:src/m4_timer_uart_app.c **** #define DECODE_FLASH 62 // Half of 0.125 s period for decoding flash rounded down to avoid floats
  50:src/m4_timer_uart_app.c **** #define ENCODE_FLASH 250 // Half of 0.5 s period for encoding flash
  51:src/m4_timer_uart_app.c **** #define SPACE_INPUT 0x00 // ASCII for [space] input
  52:src/m4_timer_uart_app.c **** 
  53:src/m4_timer_uart_app.c **** void __user_init_hw( void );
  54:src/m4_timer_uart_app.c **** 
  55:src/m4_timer_uart_app.c **** 
  56:src/m4_timer_uart_app.c **** // GLOBALs go here
  57:src/m4_timer_uart_app.c **** static uint16_t u16_encode_periodHalf = ENCODE_FLASH;
  58:src/m4_timer_uart_app.c **** //  Generally, the user-created semaphores will be defined/allocated here
  59:src/m4_timer_uart_app.c **** //static uint8_t psz_CRNL[3]= {0x0D, 0x0A, 0};
  60:src/m4_timer_uart_app.c **** 
  61:src/m4_timer_uart_app.c **** // timer globals
  62:src/m4_timer_uart_app.c **** 
  63:src/m4_timer_uart_app.c **** #ifdef _linux
  64:src/m4_timer_uart_app.c **** #endif
  65:src/m4_timer_uart_app.c **** 
  66:src/m4_timer_uart_app.c **** ESOS_USER_TASK( flash_LED ) 
ARM GAS  /tmp/ccyXqcsa.s 			page 5


  67:src/m4_timer_uart_app.c **** {
  99              		.loc 2 67 1 is_stmt 1 view -0
 100              		.cfi_startproc
 101              		@ args = 0, pretend = 0, frame = 0
 102              		@ frame_needed = 0, uses_anonymous_args = 0
 103              		.loc 2 67 1 is_stmt 0 view .LVU11
 104 0000 38B5     		push	{r3, r4, r5, lr}
 105              	.LCFI2:
 106              		.cfi_def_cfa_offset 16
 107              		.cfi_offset 3, -16
 108              		.cfi_offset 4, -12
 109              		.cfi_offset 5, -8
 110              		.cfi_offset 14, -4
 111 0002 0446     		mov	r4, r0
  68:src/m4_timer_uart_app.c **** 	ESOS_TASK_BEGIN();
 112              		.loc 2 68 2 is_stmt 1 view .LVU12
 113 0004 8378     		ldrb	r3, [r0, #2]	@ zero_extendqisi2
 114 0006 63F07F03 		orn	r3, r3, #127
 115 000a 8370     		strb	r3, [r0, #2]
 116              		.loc 2 68 2 view .LVU13
 117 000c 0388     		ldrh	r3, [r0]
 118 000e 4A2B     		cmp	r3, #74
 119 0010 22D0     		beq	.L10
 120 0012 4E2B     		cmp	r3, #78
 121 0014 36D0     		beq	.L11
 122 0016 93B1     		cbz	r3, .L18
  69:src/m4_timer_uart_app.c **** 	while (TRUE) 
  70:src/m4_timer_uart_app.c **** 	{
  71:src/m4_timer_uart_app.c **** 		TOGGLE_LD2();
  72:src/m4_timer_uart_app.c **** 		if (IS_B1_RELEASED())
  73:src/m4_timer_uart_app.c **** 		{
  74:src/m4_timer_uart_app.c **** 			ESOS_TASK_WAIT_TICKS( u16_encode_periodHalf );
  75:src/m4_timer_uart_app.c **** 		}
  76:src/m4_timer_uart_app.c **** 		else
  77:src/m4_timer_uart_app.c **** 		{ 
  78:src/m4_timer_uart_app.c **** 			ESOS_TASK_WAIT_TICKS( DECODE_FLASH );
  79:src/m4_timer_uart_app.c **** 		}
  80:src/m4_timer_uart_app.c **** 
  81:src/m4_timer_uart_app.c **** 	} // endof while(TRUE)
  82:src/m4_timer_uart_app.c **** 	ESOS_TASK_END();
 123              		.loc 2 82 2 view .LVU14
 124              		.loc 2 82 2 view .LVU15
 125 0018 0823     		movs	r3, #8
 126 001a 8370     		strb	r3, [r0, #2]
 127              		.loc 2 82 2 view .LVU16
 128 001c 0023     		movs	r3, #0
 129 001e 0380     		strh	r3, [r0]	@ movhi
 130              		.loc 2 82 2 view .LVU17
 131              		.loc 2 82 2 view .LVU18
 132              		.loc 2 82 2 view .LVU19
 133 0020 0325     		movs	r5, #3
 134              	.LVL3:
 135              	.L15:
 136              		.loc 2 82 17 discriminator 1 view .LVU20
  83:src/m4_timer_uart_app.c **** } // end flash_LED() 
 137              		.loc 2 83 1 is_stmt 0 discriminator 1 view .LVU21
 138 0022 2846     		mov	r0, r5
ARM GAS  /tmp/ccyXqcsa.s 			page 6


 139 0024 38BD     		pop	{r3, r4, r5, pc}
 140              	.LVL4:
 141              	.L23:
  74:src/m4_timer_uart_app.c **** 		}
 142              		.loc 2 74 4 is_stmt 1 discriminator 2 view .LVU22
 143 0026 0423     		movs	r3, #4
 144 0028 A370     		strb	r3, [r4, #2]
  74:src/m4_timer_uart_app.c **** 		}
 145              		.loc 2 74 4 discriminator 2 view .LVU23
 146 002a 0325     		movs	r5, #3
 147 002c F9E7     		b	.L15
 148              	.L16:
  74:src/m4_timer_uart_app.c **** 		}
 149              		.loc 2 74 4 discriminator 5 view .LVU24
 150 002e A378     		ldrb	r3, [r4, #2]	@ zero_extendqisi2
 151 0030 43F00103 		orr	r3, r3, #1
 152 0034 A370     		strb	r3, [r4, #2]
 153              	.L17:
  74:src/m4_timer_uart_app.c **** 		}
 154              		.loc 2 74 4 discriminator 7 view .LVU25
 155 0036 A378     		ldrb	r3, [r4, #2]	@ zero_extendqisi2
 156 0038 13F0010F 		tst	r3, #1
 157 003c F1D1     		bne	.L15
 158              	.L18:
  68:src/m4_timer_uart_app.c **** 	while (TRUE) 
 159              		.loc 2 68 19 discriminator 1 view .LVU26
  69:src/m4_timer_uart_app.c **** 	{
 160              		.loc 2 69 2 discriminator 1 view .LVU27
  71:src/m4_timer_uart_app.c **** 		if (IS_B1_RELEASED())
 161              		.loc 2 71 3 discriminator 1 view .LVU28
 162 003e FFF7FEFF 		bl	TOGGLE_LD2
 163              	.LVL5:
  72:src/m4_timer_uart_app.c **** 		{
 164              		.loc 2 72 3 discriminator 1 view .LVU29
  72:src/m4_timer_uart_app.c **** 		{
 165              		.loc 2 72 7 is_stmt 0 discriminator 1 view .LVU30
 166 0042 FFF7FEFF 		bl	IS_B1_RELEASED
 167              	.LVL6:
  72:src/m4_timer_uart_app.c **** 		{
 168              		.loc 2 72 6 discriminator 1 view .LVU31
 169 0046 B0B1     		cbz	r0, .L13
  74:src/m4_timer_uart_app.c **** 		}
 170              		.loc 2 74 4 is_stmt 1 view .LVU32
  74:src/m4_timer_uart_app.c **** 		}
 171              		.loc 2 74 4 view .LVU33
 172 0048 FFF7FEFF 		bl	__esos_hw_GetSystemTickCount
 173              	.LVL7:
 174 004c A060     		str	r0, [r4, #8]
  74:src/m4_timer_uart_app.c **** 		}
 175              		.loc 2 74 4 view .LVU34
 176 004e 1B4B     		ldr	r3, .L25
 177 0050 1B88     		ldrh	r3, [r3]
 178 0052 E360     		str	r3, [r4, #12]
  74:src/m4_timer_uart_app.c **** 		}
 179              		.loc 2 74 4 view .LVU35
  74:src/m4_timer_uart_app.c **** 		}
 180              		.loc 2 74 4 view .LVU36
ARM GAS  /tmp/ccyXqcsa.s 			page 7


 181 0054 4A23     		movs	r3, #74
 182 0056 2380     		strh	r3, [r4]	@ movhi
 183              	.L10:
  74:src/m4_timer_uart_app.c **** 		}
 184              		.loc 2 74 4 discriminator 1 view .LVU37
  74:src/m4_timer_uart_app.c **** 		}
 185              		.loc 2 74 4 discriminator 1 view .LVU38
 186 0058 A578     		ldrb	r5, [r4, #2]	@ zero_extendqisi2
 187 005a 15F00405 		ands	r5, r5, #4
 188 005e E2D1     		bne	.L23
  74:src/m4_timer_uart_app.c **** 		}
 189              		.loc 2 74 4 discriminator 3 view .LVU39
 190 0060 E168     		ldr	r1, [r4, #12]
 191 0062 A068     		ldr	r0, [r4, #8]
 192 0064 FFF7FEFF 		bl	__esos_hasTickDurationPassed
 193              	.LVL8:
 194 0068 0028     		cmp	r0, #0
 195 006a E0D0     		beq	.L16
  74:src/m4_timer_uart_app.c **** 		}
 196              		.loc 2 74 4 discriminator 4 view .LVU40
 197 006c A378     		ldrb	r3, [r4, #2]	@ zero_extendqisi2
 198 006e 23F00103 		bic	r3, r3, #1
 199 0072 A370     		strb	r3, [r4, #2]
 200 0074 DFE7     		b	.L17
 201              	.L13:
  78:src/m4_timer_uart_app.c **** 		}
 202              		.loc 2 78 4 view .LVU41
  78:src/m4_timer_uart_app.c **** 		}
 203              		.loc 2 78 4 view .LVU42
 204 0076 FFF7FEFF 		bl	__esos_hw_GetSystemTickCount
 205              	.LVL9:
 206 007a A060     		str	r0, [r4, #8]
  78:src/m4_timer_uart_app.c **** 		}
 207              		.loc 2 78 4 view .LVU43
 208 007c 3E23     		movs	r3, #62
 209 007e E360     		str	r3, [r4, #12]
  78:src/m4_timer_uart_app.c **** 		}
 210              		.loc 2 78 4 view .LVU44
  78:src/m4_timer_uart_app.c **** 		}
 211              		.loc 2 78 4 view .LVU45
 212 0080 4E23     		movs	r3, #78
 213 0082 2380     		strh	r3, [r4]	@ movhi
 214              	.L11:
  78:src/m4_timer_uart_app.c **** 		}
 215              		.loc 2 78 4 discriminator 1 view .LVU46
  78:src/m4_timer_uart_app.c **** 		}
 216              		.loc 2 78 4 discriminator 1 view .LVU47
 217 0084 A578     		ldrb	r5, [r4, #2]	@ zero_extendqisi2
 218 0086 15F00405 		ands	r5, r5, #4
 219 008a 0DD1     		bne	.L24
  78:src/m4_timer_uart_app.c **** 		}
 220              		.loc 2 78 4 discriminator 3 view .LVU48
 221 008c E168     		ldr	r1, [r4, #12]
 222 008e A068     		ldr	r0, [r4, #8]
 223 0090 FFF7FEFF 		bl	__esos_hasTickDurationPassed
 224              	.LVL10:
 225 0094 60B1     		cbz	r0, .L20
ARM GAS  /tmp/ccyXqcsa.s 			page 8


  78:src/m4_timer_uart_app.c **** 		}
 226              		.loc 2 78 4 discriminator 4 view .LVU49
 227 0096 A378     		ldrb	r3, [r4, #2]	@ zero_extendqisi2
 228 0098 23F00103 		bic	r3, r3, #1
 229 009c A370     		strb	r3, [r4, #2]
 230              	.L21:
  78:src/m4_timer_uart_app.c **** 		}
 231              		.loc 2 78 4 discriminator 7 view .LVU50
 232 009e A378     		ldrb	r3, [r4, #2]	@ zero_extendqisi2
 233 00a0 13F0010F 		tst	r3, #1
 234 00a4 CBD0     		beq	.L18
 235 00a6 BCE7     		b	.L15
 236              	.L24:
  78:src/m4_timer_uart_app.c **** 		}
 237              		.loc 2 78 4 discriminator 2 view .LVU51
 238 00a8 0423     		movs	r3, #4
 239 00aa A370     		strb	r3, [r4, #2]
  78:src/m4_timer_uart_app.c **** 		}
 240              		.loc 2 78 4 discriminator 2 view .LVU52
 241 00ac 0325     		movs	r5, #3
 242 00ae B8E7     		b	.L15
 243              	.L20:
  78:src/m4_timer_uart_app.c **** 		}
 244              		.loc 2 78 4 discriminator 5 view .LVU53
 245 00b0 A378     		ldrb	r3, [r4, #2]	@ zero_extendqisi2
 246 00b2 43F00103 		orr	r3, r3, #1
 247 00b6 A370     		strb	r3, [r4, #2]
 248 00b8 F1E7     		b	.L21
 249              	.L26:
 250 00ba 00BF     		.align	2
 251              	.L25:
 252 00bc 00000000 		.word	.LANCHOR0
 253              		.cfi_endproc
 254              	.LFE10:
 256              		.section	.text.IS_B1_PRESSED,"ax",%progbits
 257              		.align	1
 258              		.syntax unified
 259              		.thumb
 260              		.thumb_func
 262              	IS_B1_PRESSED:
 263              	.LFB9:
  69:src/embsysS20.h **** 
  70:src/embsysS20.h **** static bool IS_B1_PRESSED(void){
 264              		.loc 1 70 32 view -0
 265              		.cfi_startproc
 266              		@ args = 0, pretend = 0, frame = 0
 267              		@ frame_needed = 0, uses_anonymous_args = 0
 268 0000 08B5     		push	{r3, lr}
 269              	.LCFI3:
 270              		.cfi_def_cfa_offset 8
 271              		.cfi_offset 3, -8
 272              		.cfi_offset 14, -4
  71:src/embsysS20.h **** 	if (!IS_B1_RELEASED())
 273              		.loc 1 71 2 view .LVU55
 274              		.loc 1 71 7 is_stmt 0 view .LVU56
 275 0002 FFF7FEFF 		bl	IS_B1_RELEASED
 276              	.LVL11:
ARM GAS  /tmp/ccyXqcsa.s 			page 9


 277              		.loc 1 71 5 view .LVU57
 278 0006 08B9     		cbnz	r0, .L29
  72:src/embsysS20.h **** 		return true;
 279              		.loc 1 72 10 view .LVU58
 280 0008 0120     		movs	r0, #1
 281              	.L28:
  73:src/embsysS20.h **** 	else
  74:src/embsysS20.h **** 		return false;
  75:src/embsysS20.h **** }
 282              		.loc 1 75 1 view .LVU59
 283 000a 08BD     		pop	{r3, pc}
 284              	.L29:
  74:src/embsysS20.h **** }
 285              		.loc 1 74 10 view .LVU60
 286 000c 0020     		movs	r0, #0
 287 000e FCE7     		b	.L28
 288              		.cfi_endproc
 289              	.LFE9:
 291              		.section	.text.usart_comms,"ax",%progbits
 292              		.align	1
 293              		.global	usart_comms
 294              		.syntax unified
 295              		.thumb
 296              		.thumb_func
 298              	usart_comms:
 299              	.LVL12:
 300              	.LFB11:
  84:src/m4_timer_uart_app.c **** 
  85:src/m4_timer_uart_app.c **** ESOS_USER_TASK( usart_comms )
  86:src/m4_timer_uart_app.c **** {
 301              		.loc 2 86 1 is_stmt 1 view -0
 302              		.cfi_startproc
 303              		@ args = 0, pretend = 0, frame = 0
 304              		@ frame_needed = 0, uses_anonymous_args = 0
 305              		.loc 2 86 1 is_stmt 0 view .LVU62
 306 0000 70B5     		push	{r4, r5, r6, lr}
 307              	.LCFI4:
 308              		.cfi_def_cfa_offset 16
 309              		.cfi_offset 4, -16
 310              		.cfi_offset 5, -12
 311              		.cfi_offset 6, -8
 312              		.cfi_offset 14, -4
 313 0002 0446     		mov	r4, r0
  87:src/m4_timer_uart_app.c **** 	static uint8_t u8_incoming;
 314              		.loc 2 87 2 is_stmt 1 view .LVU63
  88:src/m4_timer_uart_app.c **** 	static uint8_t au8_key[] = {'T', 'E', 'N', 'N', 'E', 'S', 'S', 'E', 'E', 'T', 'E', 'C', 'H'};
 315              		.loc 2 88 2 view .LVU64
  89:src/m4_timer_uart_app.c **** 	static uint8_t u8_countEncode = 0;
 316              		.loc 2 89 2 view .LVU65
  90:src/m4_timer_uart_app.c **** 	static uint8_t u8_countDecode = 0;
 317              		.loc 2 90 2 view .LVU66
  91:src/m4_timer_uart_app.c **** 	static uint8_t u8_exclamCount = 0;
 318              		.loc 2 91 2 view .LVU67
  92:src/m4_timer_uart_app.c **** 	static bool b_changeFlag = FALSE;
 319              		.loc 2 92 2 view .LVU68
  93:src/m4_timer_uart_app.c **** 	static uint8_t u8_digitCount = 0;
 320              		.loc 2 93 2 view .LVU69
ARM GAS  /tmp/ccyXqcsa.s 			page 10


  94:src/m4_timer_uart_app.c **** 	static uint16_t u16_changePeriod = 0;
 321              		.loc 2 94 2 view .LVU70
  95:src/m4_timer_uart_app.c **** 	static bool b_skipPrint = FALSE;
 322              		.loc 2 95 2 view .LVU71
  96:src/m4_timer_uart_app.c **** 	static char ac_charArr[10];
 323              		.loc 2 96 2 view .LVU72
  97:src/m4_timer_uart_app.c **** 	static uint8_t u8_charCount = 0;
 324              		.loc 2 97 2 view .LVU73
  98:src/m4_timer_uart_app.c **** 	static bool b_changeFlagSkip = FALSE;
 325              		.loc 2 98 2 view .LVU74
  99:src/m4_timer_uart_app.c **** 	static bool b_exclamSkip = FALSE;
 326              		.loc 2 99 2 view .LVU75
 100:src/m4_timer_uart_app.c **** 	
 101:src/m4_timer_uart_app.c **** 	
 102:src/m4_timer_uart_app.c **** 	ESOS_TASK_BEGIN();
 327              		.loc 2 102 2 view .LVU76
 328 0004 8378     		ldrb	r3, [r0, #2]	@ zero_extendqisi2
 329 0006 63F07F03 		orn	r3, r3, #127
 330 000a 8370     		strb	r3, [r0, #2]
 331              		.loc 2 102 2 view .LVU77
 332 000c 0388     		ldrh	r3, [r0]
 333 000e AC2B     		cmp	r3, #172
 334 0010 00F28680 		bhi	.L32
 335 0014 992B     		cmp	r3, #153
 336 0016 19D3     		bcc	.L96
 337 0018 993B     		subs	r3, r3, #153
 338 001a 132B     		cmp	r3, #19
 339 001c 00F29282 		bhi	.L37
 340 0020 DFE813F0 		tbh	[pc, r3, lsl #1]
 341              	.L39:
 342 0024 F700     		.2byte	(.L44-.L39)/2
 343 0026 1201     		.2byte	(.L43-.L39)/2
 344 0028 9002     		.2byte	(.L37-.L39)/2
 345 002a 9002     		.2byte	(.L37-.L39)/2
 346 002c 9002     		.2byte	(.L37-.L39)/2
 347 002e 9002     		.2byte	(.L37-.L39)/2
 348 0030 9002     		.2byte	(.L37-.L39)/2
 349 0032 4901     		.2byte	(.L42-.L39)/2
 350 0034 9002     		.2byte	(.L37-.L39)/2
 351 0036 9002     		.2byte	(.L37-.L39)/2
 352 0038 9002     		.2byte	(.L37-.L39)/2
 353 003a 9002     		.2byte	(.L37-.L39)/2
 354 003c 9002     		.2byte	(.L37-.L39)/2
 355 003e 9002     		.2byte	(.L37-.L39)/2
 356 0040 9002     		.2byte	(.L37-.L39)/2
 357 0042 9002     		.2byte	(.L37-.L39)/2
 358 0044 9002     		.2byte	(.L37-.L39)/2
 359 0046 8F01     		.2byte	(.L41-.L39)/2
 360 0048 AC01     		.2byte	(.L40-.L39)/2
 361 004a C401     		.2byte	(.L38-.L39)/2
 362              		.p2align 1
 363              	.L96:
 364 004c 6A2B     		cmp	r3, #106
 365 004e 4BD0     		beq	.L34
 366 0050 6B2B     		cmp	r3, #107
 367 0052 44D1     		bne	.L97
 368              	.LVL13:
ARM GAS  /tmp/ccyXqcsa.s 			page 11


 369              	.L35:
 103:src/m4_timer_uart_app.c **** 	while (TRUE) {
 104:src/m4_timer_uart_app.c **** 	
 105:src/m4_timer_uart_app.c **** 	// ESOS UART comms uses 57.6k/8/N/1
 106:src/m4_timer_uart_app.c **** 		ESOS_TASK_WAIT_ON_AVAILABLE_IN_COMM();
 107:src/m4_timer_uart_app.c **** 		ESOS_TASK_WAIT_ON_GET_UINT8( u8_incoming );
 370              		.loc 2 107 3 discriminator 1 view .LVU78
 371              		.loc 2 107 3 discriminator 1 view .LVU79
 372 0054 A578     		ldrb	r5, [r4, #2]	@ zero_extendqisi2
 373 0056 15F00405 		ands	r5, r5, #4
 374 005a 40F08B80 		bne	.L98
 375              		.loc 2 107 3 discriminator 3 view .LVU80
 376 005e 0122     		movs	r2, #1
 377 0060 A749     		ldr	r1, .L114
 378 0062 A848     		ldr	r0, .L114+4
 379 0064 FFF7FEFF 		bl	__esos_getBuffer
 380              	.LVL14:
 381 0068 0228     		cmp	r0, #2
 382 006a 40F28780 		bls	.L52
 383              		.loc 2 107 3 discriminator 4 view .LVU81
 384 006e A378     		ldrb	r3, [r4, #2]	@ zero_extendqisi2
 385 0070 23F00103 		bic	r3, r3, #1
 386 0074 A370     		strb	r3, [r4, #2]
 387              	.L53:
 388              		.loc 2 107 3 discriminator 7 view .LVU82
 389 0076 A378     		ldrb	r3, [r4, #2]	@ zero_extendqisi2
 390 0078 13F0010F 		tst	r3, #1
 391 007c 40F06782 		bne	.L48
 392              		.loc 2 107 3 discriminator 9 view .LVU83
 393              		.loc 2 107 3 discriminator 9 view .LVU84
 108:src/m4_timer_uart_app.c **** 		ESOS_TASK_SIGNAL_AVAILABLE_IN_COMM();
 394              		.loc 2 108 3 discriminator 9 view .LVU85
 395 0080 A14A     		ldr	r2, .L114+8
 396 0082 1368     		ldr	r3, [r2]
 397 0084 23F00803 		bic	r3, r3, #8
 398 0088 1360     		str	r3, [r2]
 109:src/m4_timer_uart_app.c **** 		
 110:src/m4_timer_uart_app.c **** 		if(u8_countEncode > 12) //reset encode position in key when at the end
 399              		.loc 2 110 3 discriminator 9 view .LVU86
 400              		.loc 2 110 21 is_stmt 0 discriminator 9 view .LVU87
 401 008a A04B     		ldr	r3, .L114+12
 402 008c 1B78     		ldrb	r3, [r3]	@ zero_extendqisi2
 403              		.loc 2 110 5 discriminator 9 view .LVU88
 404 008e 0C2B     		cmp	r3, #12
 405 0090 02D9     		bls	.L54
 111:src/m4_timer_uart_app.c **** 		{
 112:src/m4_timer_uart_app.c **** 			u8_countEncode = 0;
 406              		.loc 2 112 4 is_stmt 1 view .LVU89
 407              		.loc 2 112 19 is_stmt 0 view .LVU90
 408 0092 9E4B     		ldr	r3, .L114+12
 409 0094 0022     		movs	r2, #0
 410 0096 1A70     		strb	r2, [r3]
 411              	.L54:
 113:src/m4_timer_uart_app.c **** 		}
 114:src/m4_timer_uart_app.c **** 		
 115:src/m4_timer_uart_app.c **** 		if(u8_countDecode > 12) //reset decode position in key when at the end
 412              		.loc 2 115 3 is_stmt 1 view .LVU91
ARM GAS  /tmp/ccyXqcsa.s 			page 12


 413              		.loc 2 115 21 is_stmt 0 view .LVU92
 414 0098 9D4B     		ldr	r3, .L114+16
 415 009a 1B78     		ldrb	r3, [r3]	@ zero_extendqisi2
 416              		.loc 2 115 5 view .LVU93
 417 009c 0C2B     		cmp	r3, #12
 418 009e 02D9     		bls	.L55
 116:src/m4_timer_uart_app.c **** 		{
 117:src/m4_timer_uart_app.c **** 			u8_countDecode = 0;
 419              		.loc 2 117 4 is_stmt 1 view .LVU94
 420              		.loc 2 117 19 is_stmt 0 view .LVU95
 421 00a0 9B4B     		ldr	r3, .L114+16
 422 00a2 0022     		movs	r2, #0
 423 00a4 1A70     		strb	r2, [r3]
 424              	.L55:
 118:src/m4_timer_uart_app.c **** 		}
 119:src/m4_timer_uart_app.c **** 		
 120:src/m4_timer_uart_app.c **** 		if (u8_incoming >= 'a' && u8_incoming <='z') //If incoming is a letter
 425              		.loc 2 120 3 is_stmt 1 view .LVU96
 426              		.loc 2 120 26 is_stmt 0 view .LVU97
 427 00a6 964B     		ldr	r3, .L114
 428 00a8 1A78     		ldrb	r2, [r3]	@ zero_extendqisi2
 429 00aa A2F16103 		sub	r3, r2, #97
 430 00ae DBB2     		uxtb	r3, r3
 431              		.loc 2 120 6 view .LVU98
 432 00b0 192B     		cmp	r3, #25
 433 00b2 68D9     		bls	.L99
 434              	.L56:
 121:src/m4_timer_uart_app.c **** 		{
 122:src/m4_timer_uart_app.c **** 			u8_incoming = u8_incoming - 'a' + 'A'; //convert to capital
 123:src/m4_timer_uart_app.c **** 			
 124:src/m4_timer_uart_app.c **** 			if(IS_B1_RELEASED()) //encoding mode -- works!
 125:src/m4_timer_uart_app.c **** 			{
 126:src/m4_timer_uart_app.c **** 				//add key character to letter
 127:src/m4_timer_uart_app.c **** 				u8_incoming = ((((u8_incoming - 'A') + (au8_key[u8_countEncode] - 'A')) % 26) + 'A');
 128:src/m4_timer_uart_app.c **** 				//increment count
 129:src/m4_timer_uart_app.c **** 				u8_countEncode++;
 130:src/m4_timer_uart_app.c **** 			}
 131:src/m4_timer_uart_app.c **** 			
 132:src/m4_timer_uart_app.c **** 			else //decoding mode -- works!
 133:src/m4_timer_uart_app.c **** 			{
 134:src/m4_timer_uart_app.c **** 				//subtract key character from letter
 135:src/m4_timer_uart_app.c **** 				u8_incoming = (((u8_incoming - au8_key[u8_countDecode]) + 26) % 26) + 'A';
 136:src/m4_timer_uart_app.c **** 				//increment count
 137:src/m4_timer_uart_app.c **** 				u8_countDecode++;
 138:src/m4_timer_uart_app.c **** 			}
 139:src/m4_timer_uart_app.c **** 		}
 140:src/m4_timer_uart_app.c **** 		
 141:src/m4_timer_uart_app.c **** 		if(u8_incoming == '!') //if incoming is an exclamation
 435              		.loc 2 141 3 is_stmt 1 view .LVU99
 436              		.loc 2 141 18 is_stmt 0 view .LVU100
 437 00b4 924B     		ldr	r3, .L114
 438 00b6 1B78     		ldrb	r3, [r3]	@ zero_extendqisi2
 439              		.loc 2 141 5 view .LVU101
 440 00b8 212B     		cmp	r3, #33
 441 00ba 00F09780 		beq	.L100
 142:src/m4_timer_uart_app.c **** 		{
 143:src/m4_timer_uart_app.c **** 			u8_exclamCount++;
ARM GAS  /tmp/ccyXqcsa.s 			page 13


 144:src/m4_timer_uart_app.c **** 		}
 145:src/m4_timer_uart_app.c **** 		
 146:src/m4_timer_uart_app.c **** 		//report period !!!L
 147:src/m4_timer_uart_app.c **** 		else if((u8_exclamCount >= 3) && ((u8_incoming == 'L')))
 442              		.loc 2 147 8 is_stmt 1 view .LVU102
 443              		.loc 2 147 27 is_stmt 0 view .LVU103
 444 00be 954A     		ldr	r2, .L114+20
 445 00c0 1278     		ldrb	r2, [r2]	@ zero_extendqisi2
 446              		.loc 2 147 10 view .LVU104
 447 00c2 022A     		cmp	r2, #2
 448 00c4 02D9     		bls	.L60
 449              		.loc 2 147 33 discriminator 1 view .LVU105
 450 00c6 4C2B     		cmp	r3, #76
 451 00c8 00F09580 		beq	.L101
 452              	.L60:
 148:src/m4_timer_uart_app.c **** 		{
 149:src/m4_timer_uart_app.c **** 			if(IS_B1_RELEASED())
 150:src/m4_timer_uart_app.c **** 			{
 151:src/m4_timer_uart_app.c **** 				itoa((u16_encode_periodHalf * 2), ac_charArr, 10);
 152:src/m4_timer_uart_app.c **** 				
 153:src/m4_timer_uart_app.c **** 				ESOS_TASK_WAIT_ON_AVAILABLE_OUT_COMM();
 154:src/m4_timer_uart_app.c **** 				ESOS_TASK_WAIT_ON_SEND_UINT8( 'L' );
 155:src/m4_timer_uart_app.c **** 				
 156:src/m4_timer_uart_app.c **** 				u8_charCount =0;
 157:src/m4_timer_uart_app.c **** 				
 158:src/m4_timer_uart_app.c **** 				while(ac_charArr[u8_charCount] != '\0')
 159:src/m4_timer_uart_app.c **** 				{
 160:src/m4_timer_uart_app.c **** 					ESOS_TASK_WAIT_ON_SEND_UINT8( ac_charArr[u8_charCount] );
 161:src/m4_timer_uart_app.c **** 					u8_charCount++;
 162:src/m4_timer_uart_app.c **** 				}
 163:src/m4_timer_uart_app.c **** 				ESOS_TASK_SIGNAL_AVAILABLE_OUT_COMM();
 164:src/m4_timer_uart_app.c **** 			}
 165:src/m4_timer_uart_app.c **** 			
 166:src/m4_timer_uart_app.c **** 			else if(IS_B1_PRESSED())
 167:src/m4_timer_uart_app.c **** 			{
 168:src/m4_timer_uart_app.c **** 				u8_incoming = (DECODE_FLASH * 2);
 169:src/m4_timer_uart_app.c **** 				
 170:src/m4_timer_uart_app.c **** 				ESOS_TASK_WAIT_ON_AVAILABLE_OUT_COMM();
 171:src/m4_timer_uart_app.c **** 				ESOS_TASK_WAIT_ON_SEND_UINT8( 'L' );
 172:src/m4_timer_uart_app.c **** 				ESOS_TASK_WAIT_ON_SEND_UINT8_AS_DEC_STRING( u8_incoming );
 173:src/m4_timer_uart_app.c **** 				ESOS_TASK_SIGNAL_AVAILABLE_OUT_COMM();
 174:src/m4_timer_uart_app.c **** 			}
 175:src/m4_timer_uart_app.c **** 			
 176:src/m4_timer_uart_app.c **** 			b_skipPrint = TRUE;
 177:src/m4_timer_uart_app.c **** 			u8_exclamCount = 0;
 178:src/m4_timer_uart_app.c **** 		}
 179:src/m4_timer_uart_app.c **** 		
 180:src/m4_timer_uart_app.c **** 		//change period !!!S####
 181:src/m4_timer_uart_app.c **** 		else if((u8_exclamCount >= 3) && (u8_incoming == 'S'))
 453              		.loc 2 181 8 is_stmt 1 view .LVU106
 454              		.loc 2 181 10 is_stmt 0 view .LVU107
 455 00cc 022A     		cmp	r2, #2
 456 00ce 02D9     		bls	.L83
 457              		.loc 2 181 33 discriminator 1 view .LVU108
 458 00d0 532B     		cmp	r3, #83
 459 00d2 00F0E281 		beq	.L102
 460              	.L83:
ARM GAS  /tmp/ccyXqcsa.s 			page 14


 182:src/m4_timer_uart_app.c **** 		{
 183:src/m4_timer_uart_app.c **** 			b_changeFlag = TRUE;
 184:src/m4_timer_uart_app.c **** 			b_changeFlagSkip = TRUE;
 185:src/m4_timer_uart_app.c **** 			u16_changePeriod = 0;
 186:src/m4_timer_uart_app.c **** 			u8_exclamCount = 0;
 187:src/m4_timer_uart_app.c **** 		}
 188:src/m4_timer_uart_app.c **** 
 189:src/m4_timer_uart_app.c **** 		else
 190:src/m4_timer_uart_app.c **** 			u8_exclamCount = 0;
 461              		.loc 2 190 4 is_stmt 1 view .LVU109
 462              		.loc 2 190 19 is_stmt 0 view .LVU110
 463 00d6 8F4B     		ldr	r3, .L114+20
 464 00d8 0022     		movs	r2, #0
 465 00da 1A70     		strb	r2, [r3]
 466 00dc 85E1     		b	.L59
 467              	.LVL15:
 468              	.L97:
 102:src/m4_timer_uart_app.c **** 	while (TRUE) {
 469              		.loc 2 102 2 view .LVU111
 470 00de 002B     		cmp	r3, #0
 471 00e0 40F03082 		bne	.L37
 472              	.LVL16:
 473              	.L36:
 102:src/m4_timer_uart_app.c **** 	while (TRUE) {
 474              		.loc 2 102 19 is_stmt 1 discriminator 1 view .LVU112
 103:src/m4_timer_uart_app.c **** 	
 475              		.loc 2 103 2 discriminator 1 view .LVU113
 106:src/m4_timer_uart_app.c **** 		ESOS_TASK_WAIT_ON_GET_UINT8( u8_incoming );
 476              		.loc 2 106 3 discriminator 1 view .LVU114
 106:src/m4_timer_uart_app.c **** 		ESOS_TASK_WAIT_ON_GET_UINT8( u8_incoming );
 477              		.loc 2 106 3 discriminator 1 view .LVU115
 478 00e4 6A23     		movs	r3, #106
 479 00e6 2380     		strh	r3, [r4]	@ movhi
 480              	.L34:
 106:src/m4_timer_uart_app.c **** 		ESOS_TASK_WAIT_ON_GET_UINT8( u8_incoming );
 481              		.loc 2 106 3 discriminator 1 view .LVU116
 106:src/m4_timer_uart_app.c **** 		ESOS_TASK_WAIT_ON_GET_UINT8( u8_incoming );
 482              		.loc 2 106 3 discriminator 1 view .LVU117
 483 00e8 A378     		ldrb	r3, [r4, #2]	@ zero_extendqisi2
 484 00ea 13F00405 		ands	r5, r3, #4
 485 00ee 39D1     		bne	.L103
 106:src/m4_timer_uart_app.c **** 		ESOS_TASK_WAIT_ON_GET_UINT8( u8_incoming );
 486              		.loc 2 106 3 discriminator 3 view .LVU118
 487 00f0 854A     		ldr	r2, .L114+8
 488 00f2 1268     		ldr	r2, [r2]
 489 00f4 12F0080F 		tst	r2, #8
 490 00f8 38D1     		bne	.L49
 106:src/m4_timer_uart_app.c **** 		ESOS_TASK_WAIT_ON_GET_UINT8( u8_incoming );
 491              		.loc 2 106 3 discriminator 4 view .LVU119
 492 00fa 23F00103 		bic	r3, r3, #1
 493 00fe A370     		strb	r3, [r4, #2]
 494              	.L50:
 106:src/m4_timer_uart_app.c **** 		ESOS_TASK_WAIT_ON_GET_UINT8( u8_incoming );
 495              		.loc 2 106 3 discriminator 7 view .LVU120
 496 0100 A378     		ldrb	r3, [r4, #2]	@ zero_extendqisi2
 497 0102 13F0010F 		tst	r3, #1
 498 0106 40F02282 		bne	.L48
ARM GAS  /tmp/ccyXqcsa.s 			page 15


 106:src/m4_timer_uart_app.c **** 		ESOS_TASK_WAIT_ON_GET_UINT8( u8_incoming );
 499              		.loc 2 106 3 discriminator 9 view .LVU121
 106:src/m4_timer_uart_app.c **** 		ESOS_TASK_WAIT_ON_GET_UINT8( u8_incoming );
 500              		.loc 2 106 3 discriminator 9 view .LVU122
 501 010a 7F4A     		ldr	r2, .L114+8
 502 010c 1368     		ldr	r3, [r2]
 503 010e 43F00803 		orr	r3, r3, #8
 504 0112 1360     		str	r3, [r2]
 107:src/m4_timer_uart_app.c **** 		ESOS_TASK_SIGNAL_AVAILABLE_IN_COMM();
 505              		.loc 2 107 3 discriminator 9 view .LVU123
 107:src/m4_timer_uart_app.c **** 		ESOS_TASK_SIGNAL_AVAILABLE_IN_COMM();
 506              		.loc 2 107 3 discriminator 9 view .LVU124
 507 0114 7B4B     		ldr	r3, .L114+4
 508 0116 0022     		movs	r2, #0
 509 0118 1A80     		strh	r2, [r3]	@ movhi
 107:src/m4_timer_uart_app.c **** 		ESOS_TASK_SIGNAL_AVAILABLE_IN_COMM();
 510              		.loc 2 107 3 discriminator 9 view .LVU125
 107:src/m4_timer_uart_app.c **** 		ESOS_TASK_SIGNAL_AVAILABLE_IN_COMM();
 511              		.loc 2 107 3 discriminator 9 view .LVU126
 107:src/m4_timer_uart_app.c **** 		ESOS_TASK_SIGNAL_AVAILABLE_IN_COMM();
 512              		.loc 2 107 3 discriminator 9 view .LVU127
 107:src/m4_timer_uart_app.c **** 		ESOS_TASK_SIGNAL_AVAILABLE_IN_COMM();
 513              		.loc 2 107 3 discriminator 9 view .LVU128
 514 011a 6B23     		movs	r3, #107
 515 011c 2380     		strh	r3, [r4]	@ movhi
 516 011e 99E7     		b	.L35
 517              	.LVL17:
 518              	.L32:
 102:src/m4_timer_uart_app.c **** 	while (TRUE) {
 519              		.loc 2 102 2 is_stmt 0 view .LVU129
 520 0120 E62B     		cmp	r3, #230
 521 0122 00F08581 		beq	.L45
 522 0126 E72B     		cmp	r3, #231
 523 0128 40F00C82 		bne	.L37
 524              	.LVL18:
 525              	.L46:
 191:src/m4_timer_uart_app.c **** 		
 192:src/m4_timer_uart_app.c **** 		if(b_changeFlag && !b_changeFlagSkip)
 193:src/m4_timer_uart_app.c **** 		{	
 194:src/m4_timer_uart_app.c **** 			//if #---
 195:src/m4_timer_uart_app.c **** 			if(u8_digitCount == 0)
 196:src/m4_timer_uart_app.c **** 			{
 197:src/m4_timer_uart_app.c **** 				++u8_digitCount;
 198:src/m4_timer_uart_app.c **** 				u16_changePeriod = u16_changePeriod + ((u8_incoming - '0') * 1000);
 199:src/m4_timer_uart_app.c **** 			}
 200:src/m4_timer_uart_app.c **** 
 201:src/m4_timer_uart_app.c **** 			//if -#--
 202:src/m4_timer_uart_app.c **** 			else if(u8_digitCount == 1)
 203:src/m4_timer_uart_app.c **** 			{
 204:src/m4_timer_uart_app.c **** 				++u8_digitCount;
 205:src/m4_timer_uart_app.c **** 				u16_changePeriod = u16_changePeriod + ((u8_incoming - '0') * 100);
 206:src/m4_timer_uart_app.c **** 			}
 207:src/m4_timer_uart_app.c **** 
 208:src/m4_timer_uart_app.c **** 			//if --#-
 209:src/m4_timer_uart_app.c **** 			else if(u8_digitCount == 2)
 210:src/m4_timer_uart_app.c **** 			{
 211:src/m4_timer_uart_app.c **** 				++u8_digitCount;
ARM GAS  /tmp/ccyXqcsa.s 			page 16


 212:src/m4_timer_uart_app.c **** 				u16_changePeriod = u16_changePeriod + ((u8_incoming - '0') * 10);
 213:src/m4_timer_uart_app.c **** 			}
 214:src/m4_timer_uart_app.c **** 
 215:src/m4_timer_uart_app.c **** 			//if ---#
 216:src/m4_timer_uart_app.c **** 			else if(u8_digitCount == 3)
 217:src/m4_timer_uart_app.c **** 			{
 218:src/m4_timer_uart_app.c **** 				u16_changePeriod = u16_changePeriod + (u8_incoming - '0');
 219:src/m4_timer_uart_app.c **** 				u16_encode_periodHalf = u16_changePeriod / 2;
 220:src/m4_timer_uart_app.c **** 				
 221:src/m4_timer_uart_app.c **** 				b_changeFlag = FALSE;
 222:src/m4_timer_uart_app.c **** 				u8_digitCount = 0;
 223:src/m4_timer_uart_app.c **** 			}
 224:src/m4_timer_uart_app.c **** 		}
 225:src/m4_timer_uart_app.c **** 		
 226:src/m4_timer_uart_app.c **** 		b_changeFlagSkip = FALSE;
 227:src/m4_timer_uart_app.c **** 
 228:src/m4_timer_uart_app.c **** 		if(!b_skipPrint)
 229:src/m4_timer_uart_app.c **** 		{
 230:src/m4_timer_uart_app.c **** 			ESOS_TASK_WAIT_ON_AVAILABLE_OUT_COMM();
 231:src/m4_timer_uart_app.c **** 			ESOS_TASK_WAIT_ON_SEND_UINT8( u8_incoming );
 526              		.loc 2 231 4 is_stmt 1 discriminator 1 view .LVU130
 527              		.loc 2 231 4 discriminator 1 view .LVU131
 528 012c A578     		ldrb	r5, [r4, #2]	@ zero_extendqisi2
 529 012e 15F00405 		ands	r5, r5, #4
 530 0132 40F0FA81 		bne	.L104
 531              		.loc 2 231 4 discriminator 3 view .LVU132
 532 0136 724B     		ldr	r3, .L114
 533 0138 1978     		ldrb	r1, [r3]	@ zero_extendqisi2
 534 013a 7748     		ldr	r0, .L114+24
 535 013c FFF7FEFF 		bl	__esos_OutChar
 536              	.LVL19:
 537 0140 0228     		cmp	r0, #2
 538 0142 40F2F681 		bls	.L93
 539              		.loc 2 231 4 discriminator 4 view .LVU133
 540 0146 A378     		ldrb	r3, [r4, #2]	@ zero_extendqisi2
 541 0148 23F00103 		bic	r3, r3, #1
 542 014c A370     		strb	r3, [r4, #2]
 543              	.L94:
 544              		.loc 2 231 4 discriminator 7 view .LVU134
 545 014e A378     		ldrb	r3, [r4, #2]	@ zero_extendqisi2
 546 0150 13F0010F 		tst	r3, #1
 547 0154 40F0FB81 		bne	.L48
 548              		.loc 2 231 4 discriminator 9 view .LVU135
 549              		.loc 2 231 4 discriminator 9 view .LVU136
 232:src/m4_timer_uart_app.c **** 			ESOS_TASK_SIGNAL_AVAILABLE_OUT_COMM();
 550              		.loc 2 232 4 discriminator 9 view .LVU137
 551 0158 6B4A     		ldr	r2, .L114+8
 552 015a 1368     		ldr	r3, [r2]
 553 015c 23F00403 		bic	r3, r3, #4
 554 0160 1360     		str	r3, [r2]
 555 0162 BFE7     		b	.L36
 556              	.L103:
 106:src/m4_timer_uart_app.c **** 		ESOS_TASK_WAIT_ON_GET_UINT8( u8_incoming );
 557              		.loc 2 106 3 discriminator 2 view .LVU138
 558 0164 0423     		movs	r3, #4
 559 0166 A370     		strb	r3, [r4, #2]
 106:src/m4_timer_uart_app.c **** 		ESOS_TASK_WAIT_ON_GET_UINT8( u8_incoming );
ARM GAS  /tmp/ccyXqcsa.s 			page 17


 560              		.loc 2 106 3 discriminator 2 view .LVU139
 561 0168 0325     		movs	r5, #3
 562 016a F0E1     		b	.L48
 563              	.L49:
 106:src/m4_timer_uart_app.c **** 		ESOS_TASK_WAIT_ON_GET_UINT8( u8_incoming );
 564              		.loc 2 106 3 discriminator 5 view .LVU140
 565 016c 43F00103 		orr	r3, r3, #1
 566 0170 A370     		strb	r3, [r4, #2]
 567 0172 C5E7     		b	.L50
 568              	.L98:
 107:src/m4_timer_uart_app.c **** 		ESOS_TASK_SIGNAL_AVAILABLE_IN_COMM();
 569              		.loc 2 107 3 discriminator 2 view .LVU141
 570 0174 0423     		movs	r3, #4
 571 0176 A370     		strb	r3, [r4, #2]
 107:src/m4_timer_uart_app.c **** 		ESOS_TASK_SIGNAL_AVAILABLE_IN_COMM();
 572              		.loc 2 107 3 discriminator 2 view .LVU142
 573 0178 0325     		movs	r5, #3
 574 017a E8E1     		b	.L48
 575              	.L52:
 107:src/m4_timer_uart_app.c **** 		ESOS_TASK_SIGNAL_AVAILABLE_IN_COMM();
 576              		.loc 2 107 3 discriminator 5 view .LVU143
 577 017c A378     		ldrb	r3, [r4, #2]	@ zero_extendqisi2
 578 017e 43F00103 		orr	r3, r3, #1
 579 0182 A370     		strb	r3, [r4, #2]
 580 0184 77E7     		b	.L53
 581              	.L99:
 122:src/m4_timer_uart_app.c **** 			
 582              		.loc 2 122 4 view .LVU144
 122:src/m4_timer_uart_app.c **** 			
 583              		.loc 2 122 36 is_stmt 0 view .LVU145
 584 0186 203A     		subs	r2, r2, #32
 122:src/m4_timer_uart_app.c **** 			
 585              		.loc 2 122 16 view .LVU146
 586 0188 5D4B     		ldr	r3, .L114
 587 018a 1A70     		strb	r2, [r3]
 124:src/m4_timer_uart_app.c **** 			{
 588              		.loc 2 124 4 is_stmt 1 view .LVU147
 124:src/m4_timer_uart_app.c **** 			{
 589              		.loc 2 124 7 is_stmt 0 view .LVU148
 590 018c FFF7FEFF 		bl	IS_B1_RELEASED
 591              	.LVL20:
 124:src/m4_timer_uart_app.c **** 			{
 592              		.loc 2 124 6 view .LVU149
 593 0190 B0B1     		cbz	r0, .L57
 127:src/m4_timer_uart_app.c **** 				//increment count
 594              		.loc 2 127 5 is_stmt 1 view .LVU150
 127:src/m4_timer_uart_app.c **** 				//increment count
 595              		.loc 2 127 35 is_stmt 0 view .LVU151
 596 0192 5B4E     		ldr	r6, .L114
 597 0194 3278     		ldrb	r2, [r6]	@ zero_extendqisi2
 598 0196 413A     		subs	r2, r2, #65
 127:src/m4_timer_uart_app.c **** 				//increment count
 599              		.loc 2 127 52 view .LVU152
 600 0198 5C4D     		ldr	r5, .L114+12
 601 019a 2978     		ldrb	r1, [r5]	@ zero_extendqisi2
 602 019c 5F4B     		ldr	r3, .L114+28
 603 019e 5B5C     		ldrb	r3, [r3, r1]	@ zero_extendqisi2
ARM GAS  /tmp/ccyXqcsa.s 			page 18


 127:src/m4_timer_uart_app.c **** 				//increment count
 604              		.loc 2 127 69 view .LVU153
 605 01a0 413B     		subs	r3, r3, #65
 127:src/m4_timer_uart_app.c **** 				//increment count
 606              		.loc 2 127 42 view .LVU154
 607 01a2 1A44     		add	r2, r2, r3
 127:src/m4_timer_uart_app.c **** 				//increment count
 608              		.loc 2 127 77 view .LVU155
 609 01a4 5E48     		ldr	r0, .L114+32
 610 01a6 80FB0230 		smull	r3, r0, r0, r2
 611 01aa D317     		asrs	r3, r2, #31
 612 01ac C3EBE003 		rsb	r3, r3, r0, asr #3
 613 01b0 1A20     		movs	r0, #26
 614 01b2 00FB1323 		mls	r3, r0, r3, r2
 127:src/m4_timer_uart_app.c **** 				//increment count
 615              		.loc 2 127 83 view .LVU156
 616 01b6 4133     		adds	r3, r3, #65
 127:src/m4_timer_uart_app.c **** 				//increment count
 617              		.loc 2 127 17 view .LVU157
 618 01b8 3370     		strb	r3, [r6]
 129:src/m4_timer_uart_app.c **** 			}
 619              		.loc 2 129 5 is_stmt 1 view .LVU158
 129:src/m4_timer_uart_app.c **** 			}
 620              		.loc 2 129 19 is_stmt 0 view .LVU159
 621 01ba 0131     		adds	r1, r1, #1
 622 01bc 2970     		strb	r1, [r5]
 623 01be 79E7     		b	.L56
 624              	.L57:
 135:src/m4_timer_uart_app.c **** 				//increment count
 625              		.loc 2 135 5 is_stmt 1 view .LVU160
 135:src/m4_timer_uart_app.c **** 				//increment count
 626              		.loc 2 135 43 is_stmt 0 view .LVU161
 627 01c0 534D     		ldr	r5, .L114+16
 628 01c2 2978     		ldrb	r1, [r5]	@ zero_extendqisi2
 629 01c4 554B     		ldr	r3, .L114+28
 630 01c6 5B5C     		ldrb	r3, [r3, r1]	@ zero_extendqisi2
 135:src/m4_timer_uart_app.c **** 				//increment count
 631              		.loc 2 135 34 view .LVU162
 632 01c8 4D4E     		ldr	r6, .L114
 633 01ca 3278     		ldrb	r2, [r6]	@ zero_extendqisi2
 634 01cc D21A     		subs	r2, r2, r3
 135:src/m4_timer_uart_app.c **** 				//increment count
 635              		.loc 2 135 61 view .LVU163
 636 01ce 1A32     		adds	r2, r2, #26
 135:src/m4_timer_uart_app.c **** 				//increment count
 637              		.loc 2 135 67 view .LVU164
 638 01d0 5348     		ldr	r0, .L114+32
 639 01d2 80FB0230 		smull	r3, r0, r0, r2
 640 01d6 D317     		asrs	r3, r2, #31
 641 01d8 C3EBE003 		rsb	r3, r3, r0, asr #3
 642 01dc 1A20     		movs	r0, #26
 643 01de 00FB1323 		mls	r3, r0, r3, r2
 135:src/m4_timer_uart_app.c **** 				//increment count
 644              		.loc 2 135 73 view .LVU165
 645 01e2 4133     		adds	r3, r3, #65
 135:src/m4_timer_uart_app.c **** 				//increment count
 646              		.loc 2 135 17 view .LVU166
ARM GAS  /tmp/ccyXqcsa.s 			page 19


 647 01e4 3370     		strb	r3, [r6]
 137:src/m4_timer_uart_app.c **** 			}
 648              		.loc 2 137 5 is_stmt 1 view .LVU167
 137:src/m4_timer_uart_app.c **** 			}
 649              		.loc 2 137 19 is_stmt 0 view .LVU168
 650 01e6 0131     		adds	r1, r1, #1
 651 01e8 2970     		strb	r1, [r5]
 652 01ea 63E7     		b	.L56
 653              	.L100:
 143:src/m4_timer_uart_app.c **** 		}
 654              		.loc 2 143 4 is_stmt 1 view .LVU169
 143:src/m4_timer_uart_app.c **** 		}
 655              		.loc 2 143 18 is_stmt 0 view .LVU170
 656 01ec 494A     		ldr	r2, .L114+20
 657 01ee 1378     		ldrb	r3, [r2]	@ zero_extendqisi2
 658 01f0 0133     		adds	r3, r3, #1
 659 01f2 1370     		strb	r3, [r2]
 660 01f4 F9E0     		b	.L59
 661              	.L101:
 149:src/m4_timer_uart_app.c **** 			{
 662              		.loc 2 149 4 is_stmt 1 view .LVU171
 149:src/m4_timer_uart_app.c **** 			{
 663              		.loc 2 149 7 is_stmt 0 view .LVU172
 664 01f6 FFF7FEFF 		bl	IS_B1_RELEASED
 665              	.LVL21:
 149:src/m4_timer_uart_app.c **** 			{
 666              		.loc 2 149 6 view .LVU173
 667 01fa 0028     		cmp	r0, #0
 668 01fc 00F09880 		beq	.L61
 151:src/m4_timer_uart_app.c **** 				
 669              		.loc 2 151 5 is_stmt 1 view .LVU174
 670 0200 484B     		ldr	r3, .L114+36
 671 0202 1888     		ldrh	r0, [r3]
 672 0204 0A22     		movs	r2, #10
 673 0206 4849     		ldr	r1, .L114+40
 674 0208 4000     		lsls	r0, r0, #1
 675 020a FFF7FEFF 		bl	itoa
 676              	.LVL22:
 153:src/m4_timer_uart_app.c **** 				ESOS_TASK_WAIT_ON_SEND_UINT8( 'L' );
 677              		.loc 2 153 5 view .LVU175
 153:src/m4_timer_uart_app.c **** 				ESOS_TASK_WAIT_ON_SEND_UINT8( 'L' );
 678              		.loc 2 153 5 view .LVU176
 679 020e 9923     		movs	r3, #153
 680 0210 2380     		strh	r3, [r4]	@ movhi
 681              	.L44:
 153:src/m4_timer_uart_app.c **** 				ESOS_TASK_WAIT_ON_SEND_UINT8( 'L' );
 682              		.loc 2 153 5 discriminator 1 view .LVU177
 153:src/m4_timer_uart_app.c **** 				ESOS_TASK_WAIT_ON_SEND_UINT8( 'L' );
 683              		.loc 2 153 5 discriminator 1 view .LVU178
 684 0212 A378     		ldrb	r3, [r4, #2]	@ zero_extendqisi2
 685 0214 13F00405 		ands	r5, r3, #4
 686 0218 37D1     		bne	.L105
 153:src/m4_timer_uart_app.c **** 				ESOS_TASK_WAIT_ON_SEND_UINT8( 'L' );
 687              		.loc 2 153 5 discriminator 3 view .LVU179
 688 021a 3B4A     		ldr	r2, .L114+8
 689 021c 1268     		ldr	r2, [r2]
 690 021e 12F0040F 		tst	r2, #4
ARM GAS  /tmp/ccyXqcsa.s 			page 20


 691 0222 36D1     		bne	.L63
 153:src/m4_timer_uart_app.c **** 				ESOS_TASK_WAIT_ON_SEND_UINT8( 'L' );
 692              		.loc 2 153 5 discriminator 4 view .LVU180
 693 0224 23F00103 		bic	r3, r3, #1
 694 0228 A370     		strb	r3, [r4, #2]
 695              	.L64:
 153:src/m4_timer_uart_app.c **** 				ESOS_TASK_WAIT_ON_SEND_UINT8( 'L' );
 696              		.loc 2 153 5 discriminator 7 view .LVU181
 697 022a A378     		ldrb	r3, [r4, #2]	@ zero_extendqisi2
 698 022c 13F0010F 		tst	r3, #1
 699 0230 40F08D81 		bne	.L48
 153:src/m4_timer_uart_app.c **** 				ESOS_TASK_WAIT_ON_SEND_UINT8( 'L' );
 700              		.loc 2 153 5 discriminator 9 view .LVU182
 153:src/m4_timer_uart_app.c **** 				ESOS_TASK_WAIT_ON_SEND_UINT8( 'L' );
 701              		.loc 2 153 5 discriminator 9 view .LVU183
 702 0234 344A     		ldr	r2, .L114+8
 703 0236 1368     		ldr	r3, [r2]
 704 0238 43F00403 		orr	r3, r3, #4
 705 023c 1360     		str	r3, [r2]
 154:src/m4_timer_uart_app.c **** 				
 706              		.loc 2 154 5 discriminator 9 view .LVU184
 154:src/m4_timer_uart_app.c **** 				
 707              		.loc 2 154 5 discriminator 9 view .LVU185
 708 023e 364B     		ldr	r3, .L114+24
 709 0240 0022     		movs	r2, #0
 710 0242 1A80     		strh	r2, [r3]	@ movhi
 154:src/m4_timer_uart_app.c **** 				
 711              		.loc 2 154 5 discriminator 9 view .LVU186
 154:src/m4_timer_uart_app.c **** 				
 712              		.loc 2 154 5 discriminator 9 view .LVU187
 154:src/m4_timer_uart_app.c **** 				
 713              		.loc 2 154 5 discriminator 9 view .LVU188
 154:src/m4_timer_uart_app.c **** 				
 714              		.loc 2 154 5 discriminator 9 view .LVU189
 715 0244 9A23     		movs	r3, #154
 716 0246 2380     		strh	r3, [r4]	@ movhi
 717              	.L43:
 154:src/m4_timer_uart_app.c **** 				
 718              		.loc 2 154 5 discriminator 1 view .LVU190
 154:src/m4_timer_uart_app.c **** 				
 719              		.loc 2 154 5 discriminator 1 view .LVU191
 720 0248 A578     		ldrb	r5, [r4, #2]	@ zero_extendqisi2
 721 024a 15F00405 		ands	r5, r5, #4
 722 024e 24D1     		bne	.L106
 154:src/m4_timer_uart_app.c **** 				
 723              		.loc 2 154 5 discriminator 3 view .LVU192
 724 0250 4C21     		movs	r1, #76
 725 0252 3148     		ldr	r0, .L114+24
 726 0254 FFF7FEFF 		bl	__esos_OutChar
 727              	.LVL23:
 728 0258 0228     		cmp	r0, #2
 729 025a 22D9     		bls	.L66
 154:src/m4_timer_uart_app.c **** 				
 730              		.loc 2 154 5 discriminator 4 view .LVU193
 731 025c A378     		ldrb	r3, [r4, #2]	@ zero_extendqisi2
 732 025e 23F00103 		bic	r3, r3, #1
 733 0262 A370     		strb	r3, [r4, #2]
ARM GAS  /tmp/ccyXqcsa.s 			page 21


 734              	.L67:
 154:src/m4_timer_uart_app.c **** 				
 735              		.loc 2 154 5 discriminator 7 view .LVU194
 736 0264 A378     		ldrb	r3, [r4, #2]	@ zero_extendqisi2
 737 0266 13F0010F 		tst	r3, #1
 738 026a 40F07081 		bne	.L48
 154:src/m4_timer_uart_app.c **** 				
 739              		.loc 2 154 5 discriminator 9 view .LVU195
 154:src/m4_timer_uart_app.c **** 				
 740              		.loc 2 154 5 discriminator 9 view .LVU196
 156:src/m4_timer_uart_app.c **** 				
 741              		.loc 2 156 5 discriminator 9 view .LVU197
 156:src/m4_timer_uart_app.c **** 				
 742              		.loc 2 156 18 is_stmt 0 discriminator 9 view .LVU198
 743 026e 2F4B     		ldr	r3, .L114+44
 744 0270 0022     		movs	r2, #0
 745 0272 1A70     		strb	r2, [r3]
 158:src/m4_timer_uart_app.c **** 				{
 746              		.loc 2 158 5 is_stmt 1 discriminator 9 view .LVU199
 747              	.L68:
 158:src/m4_timer_uart_app.c **** 				{
 748              		.loc 2 158 10 view .LVU200
 158:src/m4_timer_uart_app.c **** 				{
 749              		.loc 2 158 21 is_stmt 0 view .LVU201
 750 0274 2D4B     		ldr	r3, .L114+44
 751 0276 1B78     		ldrb	r3, [r3]	@ zero_extendqisi2
 752 0278 2B4A     		ldr	r2, .L114+40
 753 027a D35C     		ldrb	r3, [r2, r3]	@ zero_extendqisi2
 158:src/m4_timer_uart_app.c **** 				{
 754              		.loc 2 158 10 view .LVU202
 755 027c B3B9     		cbnz	r3, .L72
 163:src/m4_timer_uart_app.c **** 			}
 756              		.loc 2 163 5 is_stmt 1 view .LVU203
 757 027e 224A     		ldr	r2, .L114+8
 758 0280 1368     		ldr	r3, [r2]
 759 0282 23F00403 		bic	r3, r3, #4
 760 0286 1360     		str	r3, [r2]
 761 0288 A9E0     		b	.L73
 762              	.L105:
 153:src/m4_timer_uart_app.c **** 				ESOS_TASK_WAIT_ON_SEND_UINT8( 'L' );
 763              		.loc 2 153 5 discriminator 2 view .LVU204
 764 028a 0423     		movs	r3, #4
 765 028c A370     		strb	r3, [r4, #2]
 153:src/m4_timer_uart_app.c **** 				ESOS_TASK_WAIT_ON_SEND_UINT8( 'L' );
 766              		.loc 2 153 5 discriminator 2 view .LVU205
 767 028e 0325     		movs	r5, #3
 768 0290 5DE1     		b	.L48
 769              	.L63:
 153:src/m4_timer_uart_app.c **** 				ESOS_TASK_WAIT_ON_SEND_UINT8( 'L' );
 770              		.loc 2 153 5 discriminator 5 view .LVU206
 771 0292 43F00103 		orr	r3, r3, #1
 772 0296 A370     		strb	r3, [r4, #2]
 773 0298 C7E7     		b	.L64
 774              	.L106:
 154:src/m4_timer_uart_app.c **** 				
 775              		.loc 2 154 5 discriminator 2 view .LVU207
 776 029a 0423     		movs	r3, #4
ARM GAS  /tmp/ccyXqcsa.s 			page 22


 777 029c A370     		strb	r3, [r4, #2]
 154:src/m4_timer_uart_app.c **** 				
 778              		.loc 2 154 5 discriminator 2 view .LVU208
 779 029e 0325     		movs	r5, #3
 780 02a0 55E1     		b	.L48
 781              	.L66:
 154:src/m4_timer_uart_app.c **** 				
 782              		.loc 2 154 5 discriminator 5 view .LVU209
 783 02a2 A378     		ldrb	r3, [r4, #2]	@ zero_extendqisi2
 784 02a4 43F00103 		orr	r3, r3, #1
 785 02a8 A370     		strb	r3, [r4, #2]
 786 02aa DBE7     		b	.L67
 787              	.L72:
 160:src/m4_timer_uart_app.c **** 					u8_charCount++;
 788              		.loc 2 160 6 view .LVU210
 160:src/m4_timer_uart_app.c **** 					u8_charCount++;
 789              		.loc 2 160 6 view .LVU211
 790 02ac 1A4B     		ldr	r3, .L114+24
 791 02ae 0022     		movs	r2, #0
 792 02b0 1A80     		strh	r2, [r3]	@ movhi
 160:src/m4_timer_uart_app.c **** 					u8_charCount++;
 793              		.loc 2 160 6 view .LVU212
 160:src/m4_timer_uart_app.c **** 					u8_charCount++;
 794              		.loc 2 160 6 view .LVU213
 160:src/m4_timer_uart_app.c **** 					u8_charCount++;
 795              		.loc 2 160 6 view .LVU214
 160:src/m4_timer_uart_app.c **** 					u8_charCount++;
 796              		.loc 2 160 6 view .LVU215
 797 02b2 A023     		movs	r3, #160
 798 02b4 2380     		strh	r3, [r4]	@ movhi
 799              	.L42:
 160:src/m4_timer_uart_app.c **** 					u8_charCount++;
 800              		.loc 2 160 6 discriminator 1 view .LVU216
 160:src/m4_timer_uart_app.c **** 					u8_charCount++;
 801              		.loc 2 160 6 discriminator 1 view .LVU217
 802 02b6 A578     		ldrb	r5, [r4, #2]	@ zero_extendqisi2
 803 02b8 15F00405 		ands	r5, r5, #4
 804 02bc 16D1     		bne	.L107
 160:src/m4_timer_uart_app.c **** 					u8_charCount++;
 805              		.loc 2 160 6 discriminator 3 view .LVU218
 806 02be 1B4B     		ldr	r3, .L114+44
 807 02c0 1B78     		ldrb	r3, [r3]	@ zero_extendqisi2
 808 02c2 194A     		ldr	r2, .L114+40
 809 02c4 D15C     		ldrb	r1, [r2, r3]	@ zero_extendqisi2
 810 02c6 1448     		ldr	r0, .L114+24
 811 02c8 FFF7FEFF 		bl	__esos_OutChar
 812              	.LVL24:
 813 02cc 0228     		cmp	r0, #2
 814 02ce 11D9     		bls	.L70
 160:src/m4_timer_uart_app.c **** 					u8_charCount++;
 815              		.loc 2 160 6 discriminator 4 view .LVU219
 816 02d0 A378     		ldrb	r3, [r4, #2]	@ zero_extendqisi2
 817 02d2 23F00103 		bic	r3, r3, #1
 818 02d6 A370     		strb	r3, [r4, #2]
 819              	.L71:
 160:src/m4_timer_uart_app.c **** 					u8_charCount++;
 820              		.loc 2 160 6 discriminator 7 view .LVU220
ARM GAS  /tmp/ccyXqcsa.s 			page 23


 821 02d8 A378     		ldrb	r3, [r4, #2]	@ zero_extendqisi2
 822 02da 13F0010F 		tst	r3, #1
 823 02de 40F03681 		bne	.L48
 160:src/m4_timer_uart_app.c **** 					u8_charCount++;
 824              		.loc 2 160 6 discriminator 9 view .LVU221
 160:src/m4_timer_uart_app.c **** 					u8_charCount++;
 825              		.loc 2 160 6 discriminator 9 view .LVU222
 161:src/m4_timer_uart_app.c **** 				}
 826              		.loc 2 161 6 discriminator 9 view .LVU223
 161:src/m4_timer_uart_app.c **** 				}
 827              		.loc 2 161 18 is_stmt 0 discriminator 9 view .LVU224
 828 02e2 124A     		ldr	r2, .L114+44
 829 02e4 1378     		ldrb	r3, [r2]	@ zero_extendqisi2
 830 02e6 0133     		adds	r3, r3, #1
 831 02e8 1370     		strb	r3, [r2]
 832 02ea C3E7     		b	.L68
 833              	.L107:
 160:src/m4_timer_uart_app.c **** 					u8_charCount++;
 834              		.loc 2 160 6 is_stmt 1 discriminator 2 view .LVU225
 835 02ec 0423     		movs	r3, #4
 836 02ee A370     		strb	r3, [r4, #2]
 160:src/m4_timer_uart_app.c **** 					u8_charCount++;
 837              		.loc 2 160 6 discriminator 2 view .LVU226
 838 02f0 0325     		movs	r5, #3
 839 02f2 2CE1     		b	.L48
 840              	.L70:
 160:src/m4_timer_uart_app.c **** 					u8_charCount++;
 841              		.loc 2 160 6 discriminator 5 view .LVU227
 842 02f4 A378     		ldrb	r3, [r4, #2]	@ zero_extendqisi2
 843 02f6 43F00103 		orr	r3, r3, #1
 844 02fa A370     		strb	r3, [r4, #2]
 845 02fc ECE7     		b	.L71
 846              	.L115:
 847 02fe 00BF     		.align	2
 848              	.L114:
 849 0300 00000000 		.word	.LANCHOR1
 850 0304 00000000 		.word	__stChildTaskRx
 851 0308 00000000 		.word	__esos_u32SystemFlags
 852 030c 00000000 		.word	.LANCHOR2
 853 0310 00000000 		.word	.LANCHOR3
 854 0314 00000000 		.word	.LANCHOR5
 855 0318 00000000 		.word	__stChildTaskTx
 856 031c 00000000 		.word	.LANCHOR4
 857 0320 4FECC44E 		.word	1321528399
 858 0324 00000000 		.word	.LANCHOR0
 859 0328 00000000 		.word	.LANCHOR6
 860 032c 00000000 		.word	.LANCHOR7
 861              	.L61:
 166:src/m4_timer_uart_app.c **** 			{
 862              		.loc 2 166 9 view .LVU228
 166:src/m4_timer_uart_app.c **** 			{
 863              		.loc 2 166 12 is_stmt 0 view .LVU229
 864 0330 FFF7FEFF 		bl	IS_B1_PRESSED
 865              	.LVL25:
 166:src/m4_timer_uart_app.c **** 			{
 866              		.loc 2 166 11 view .LVU230
 867 0334 0028     		cmp	r0, #0
ARM GAS  /tmp/ccyXqcsa.s 			page 24


 868 0336 52D0     		beq	.L73
 168:src/m4_timer_uart_app.c **** 				
 869              		.loc 2 168 5 is_stmt 1 view .LVU231
 168:src/m4_timer_uart_app.c **** 				
 870              		.loc 2 168 17 is_stmt 0 view .LVU232
 871 0338 864B     		ldr	r3, .L116
 872 033a 7C22     		movs	r2, #124
 873 033c 1A70     		strb	r2, [r3]
 170:src/m4_timer_uart_app.c **** 				ESOS_TASK_WAIT_ON_SEND_UINT8( 'L' );
 874              		.loc 2 170 5 is_stmt 1 view .LVU233
 170:src/m4_timer_uart_app.c **** 				ESOS_TASK_WAIT_ON_SEND_UINT8( 'L' );
 875              		.loc 2 170 5 view .LVU234
 876 033e AA23     		movs	r3, #170
 877 0340 2380     		strh	r3, [r4]	@ movhi
 878              	.L41:
 170:src/m4_timer_uart_app.c **** 				ESOS_TASK_WAIT_ON_SEND_UINT8( 'L' );
 879              		.loc 2 170 5 discriminator 1 view .LVU235
 170:src/m4_timer_uart_app.c **** 				ESOS_TASK_WAIT_ON_SEND_UINT8( 'L' );
 880              		.loc 2 170 5 discriminator 1 view .LVU236
 881 0342 A378     		ldrb	r3, [r4, #2]	@ zero_extendqisi2
 882 0344 13F00405 		ands	r5, r3, #4
 883 0348 40F08D80 		bne	.L108
 170:src/m4_timer_uart_app.c **** 				ESOS_TASK_WAIT_ON_SEND_UINT8( 'L' );
 884              		.loc 2 170 5 discriminator 3 view .LVU237
 885 034c 824A     		ldr	r2, .L116+4
 886 034e 1268     		ldr	r2, [r2]
 887 0350 12F0040F 		tst	r2, #4
 888 0354 40F08B80 		bne	.L75
 170:src/m4_timer_uart_app.c **** 				ESOS_TASK_WAIT_ON_SEND_UINT8( 'L' );
 889              		.loc 2 170 5 discriminator 4 view .LVU238
 890 0358 23F00103 		bic	r3, r3, #1
 891 035c A370     		strb	r3, [r4, #2]
 892              	.L76:
 170:src/m4_timer_uart_app.c **** 				ESOS_TASK_WAIT_ON_SEND_UINT8( 'L' );
 893              		.loc 2 170 5 discriminator 7 view .LVU239
 894 035e A378     		ldrb	r3, [r4, #2]	@ zero_extendqisi2
 895 0360 13F0010F 		tst	r3, #1
 896 0364 40F0F380 		bne	.L48
 170:src/m4_timer_uart_app.c **** 				ESOS_TASK_WAIT_ON_SEND_UINT8( 'L' );
 897              		.loc 2 170 5 discriminator 9 view .LVU240
 170:src/m4_timer_uart_app.c **** 				ESOS_TASK_WAIT_ON_SEND_UINT8( 'L' );
 898              		.loc 2 170 5 discriminator 9 view .LVU241
 899 0368 7B4A     		ldr	r2, .L116+4
 900 036a 1368     		ldr	r3, [r2]
 901 036c 43F00403 		orr	r3, r3, #4
 902 0370 1360     		str	r3, [r2]
 171:src/m4_timer_uart_app.c **** 				ESOS_TASK_WAIT_ON_SEND_UINT8_AS_DEC_STRING( u8_incoming );
 903              		.loc 2 171 5 discriminator 9 view .LVU242
 171:src/m4_timer_uart_app.c **** 				ESOS_TASK_WAIT_ON_SEND_UINT8_AS_DEC_STRING( u8_incoming );
 904              		.loc 2 171 5 discriminator 9 view .LVU243
 905 0372 7A4B     		ldr	r3, .L116+8
 906 0374 0022     		movs	r2, #0
 907 0376 1A80     		strh	r2, [r3]	@ movhi
 171:src/m4_timer_uart_app.c **** 				ESOS_TASK_WAIT_ON_SEND_UINT8_AS_DEC_STRING( u8_incoming );
 908              		.loc 2 171 5 discriminator 9 view .LVU244
 171:src/m4_timer_uart_app.c **** 				ESOS_TASK_WAIT_ON_SEND_UINT8_AS_DEC_STRING( u8_incoming );
 909              		.loc 2 171 5 discriminator 9 view .LVU245
ARM GAS  /tmp/ccyXqcsa.s 			page 25


 171:src/m4_timer_uart_app.c **** 				ESOS_TASK_WAIT_ON_SEND_UINT8_AS_DEC_STRING( u8_incoming );
 910              		.loc 2 171 5 discriminator 9 view .LVU246
 171:src/m4_timer_uart_app.c **** 				ESOS_TASK_WAIT_ON_SEND_UINT8_AS_DEC_STRING( u8_incoming );
 911              		.loc 2 171 5 discriminator 9 view .LVU247
 912 0378 AB23     		movs	r3, #171
 913 037a 2380     		strh	r3, [r4]	@ movhi
 914              	.L40:
 171:src/m4_timer_uart_app.c **** 				ESOS_TASK_WAIT_ON_SEND_UINT8_AS_DEC_STRING( u8_incoming );
 915              		.loc 2 171 5 discriminator 1 view .LVU248
 171:src/m4_timer_uart_app.c **** 				ESOS_TASK_WAIT_ON_SEND_UINT8_AS_DEC_STRING( u8_incoming );
 916              		.loc 2 171 5 discriminator 1 view .LVU249
 917 037c A578     		ldrb	r5, [r4, #2]	@ zero_extendqisi2
 918 037e 15F00405 		ands	r5, r5, #4
 919 0382 78D1     		bne	.L109
 171:src/m4_timer_uart_app.c **** 				ESOS_TASK_WAIT_ON_SEND_UINT8_AS_DEC_STRING( u8_incoming );
 920              		.loc 2 171 5 discriminator 3 view .LVU250
 921 0384 4C21     		movs	r1, #76
 922 0386 7548     		ldr	r0, .L116+8
 923 0388 FFF7FEFF 		bl	__esos_OutChar
 924              	.LVL26:
 925 038c 0228     		cmp	r0, #2
 926 038e 76D9     		bls	.L78
 171:src/m4_timer_uart_app.c **** 				ESOS_TASK_WAIT_ON_SEND_UINT8_AS_DEC_STRING( u8_incoming );
 927              		.loc 2 171 5 discriminator 4 view .LVU251
 928 0390 A378     		ldrb	r3, [r4, #2]	@ zero_extendqisi2
 929 0392 23F00103 		bic	r3, r3, #1
 930 0396 A370     		strb	r3, [r4, #2]
 931              	.L79:
 171:src/m4_timer_uart_app.c **** 				ESOS_TASK_WAIT_ON_SEND_UINT8_AS_DEC_STRING( u8_incoming );
 932              		.loc 2 171 5 discriminator 7 view .LVU252
 933 0398 A378     		ldrb	r3, [r4, #2]	@ zero_extendqisi2
 934 039a 13F0010F 		tst	r3, #1
 935 039e 40F0D680 		bne	.L48
 171:src/m4_timer_uart_app.c **** 				ESOS_TASK_WAIT_ON_SEND_UINT8_AS_DEC_STRING( u8_incoming );
 936              		.loc 2 171 5 discriminator 9 view .LVU253
 171:src/m4_timer_uart_app.c **** 				ESOS_TASK_WAIT_ON_SEND_UINT8_AS_DEC_STRING( u8_incoming );
 937              		.loc 2 171 5 discriminator 9 view .LVU254
 172:src/m4_timer_uart_app.c **** 				ESOS_TASK_SIGNAL_AVAILABLE_OUT_COMM();
 938              		.loc 2 172 5 discriminator 9 view .LVU255
 172:src/m4_timer_uart_app.c **** 				ESOS_TASK_SIGNAL_AVAILABLE_OUT_COMM();
 939              		.loc 2 172 5 discriminator 9 view .LVU256
 940 03a2 6E4B     		ldr	r3, .L116+8
 941 03a4 0022     		movs	r2, #0
 942 03a6 1A80     		strh	r2, [r3]	@ movhi
 172:src/m4_timer_uart_app.c **** 				ESOS_TASK_SIGNAL_AVAILABLE_OUT_COMM();
 943              		.loc 2 172 5 discriminator 9 view .LVU257
 172:src/m4_timer_uart_app.c **** 				ESOS_TASK_SIGNAL_AVAILABLE_OUT_COMM();
 944              		.loc 2 172 5 discriminator 9 view .LVU258
 172:src/m4_timer_uart_app.c **** 				ESOS_TASK_SIGNAL_AVAILABLE_OUT_COMM();
 945              		.loc 2 172 5 discriminator 9 view .LVU259
 172:src/m4_timer_uart_app.c **** 				ESOS_TASK_SIGNAL_AVAILABLE_OUT_COMM();
 946              		.loc 2 172 5 discriminator 9 view .LVU260
 947 03a8 AC23     		movs	r3, #172
 948 03aa 2380     		strh	r3, [r4]	@ movhi
 949              	.L38:
 172:src/m4_timer_uart_app.c **** 				ESOS_TASK_SIGNAL_AVAILABLE_OUT_COMM();
 950              		.loc 2 172 5 discriminator 1 view .LVU261
ARM GAS  /tmp/ccyXqcsa.s 			page 26


 172:src/m4_timer_uart_app.c **** 				ESOS_TASK_SIGNAL_AVAILABLE_OUT_COMM();
 951              		.loc 2 172 5 discriminator 1 view .LVU262
 952 03ac A578     		ldrb	r5, [r4, #2]	@ zero_extendqisi2
 953 03ae 15F00405 		ands	r5, r5, #4
 954 03b2 69D1     		bne	.L110
 172:src/m4_timer_uart_app.c **** 				ESOS_TASK_SIGNAL_AVAILABLE_OUT_COMM();
 955              		.loc 2 172 5 discriminator 3 view .LVU263
 956 03b4 674B     		ldr	r3, .L116
 957 03b6 1978     		ldrb	r1, [r3]	@ zero_extendqisi2
 958 03b8 6848     		ldr	r0, .L116+8
 959 03ba FFF7FEFF 		bl	__esos_OutUint8AsDecString
 960              	.LVL27:
 961 03be 0228     		cmp	r0, #2
 962 03c0 66D9     		bls	.L81
 172:src/m4_timer_uart_app.c **** 				ESOS_TASK_SIGNAL_AVAILABLE_OUT_COMM();
 963              		.loc 2 172 5 discriminator 4 view .LVU264
 964 03c2 A378     		ldrb	r3, [r4, #2]	@ zero_extendqisi2
 965 03c4 23F00103 		bic	r3, r3, #1
 966 03c8 A370     		strb	r3, [r4, #2]
 967              	.L82:
 172:src/m4_timer_uart_app.c **** 				ESOS_TASK_SIGNAL_AVAILABLE_OUT_COMM();
 968              		.loc 2 172 5 discriminator 7 view .LVU265
 969 03ca A378     		ldrb	r3, [r4, #2]	@ zero_extendqisi2
 970 03cc 13F0010F 		tst	r3, #1
 971 03d0 40F0BD80 		bne	.L48
 172:src/m4_timer_uart_app.c **** 				ESOS_TASK_SIGNAL_AVAILABLE_OUT_COMM();
 972              		.loc 2 172 5 discriminator 9 view .LVU266
 172:src/m4_timer_uart_app.c **** 				ESOS_TASK_SIGNAL_AVAILABLE_OUT_COMM();
 973              		.loc 2 172 5 discriminator 9 view .LVU267
 173:src/m4_timer_uart_app.c **** 			}
 974              		.loc 2 173 5 discriminator 9 view .LVU268
 975 03d4 604A     		ldr	r2, .L116+4
 976 03d6 1368     		ldr	r3, [r2]
 977 03d8 23F00403 		bic	r3, r3, #4
 978 03dc 1360     		str	r3, [r2]
 979              	.L73:
 176:src/m4_timer_uart_app.c **** 			u8_exclamCount = 0;
 980              		.loc 2 176 4 view .LVU269
 176:src/m4_timer_uart_app.c **** 			u8_exclamCount = 0;
 981              		.loc 2 176 16 is_stmt 0 view .LVU270
 982 03de 604B     		ldr	r3, .L116+12
 983 03e0 0122     		movs	r2, #1
 984 03e2 1A70     		strb	r2, [r3]
 177:src/m4_timer_uart_app.c **** 		}
 985              		.loc 2 177 4 is_stmt 1 view .LVU271
 177:src/m4_timer_uart_app.c **** 		}
 986              		.loc 2 177 19 is_stmt 0 view .LVU272
 987 03e4 5F4B     		ldr	r3, .L116+16
 988 03e6 0022     		movs	r2, #0
 989 03e8 1A70     		strb	r2, [r3]
 990              	.L59:
 192:src/m4_timer_uart_app.c **** 		{	
 991              		.loc 2 192 3 is_stmt 1 view .LVU273
 192:src/m4_timer_uart_app.c **** 		{	
 992              		.loc 2 192 6 is_stmt 0 view .LVU274
 993 03ea 5F4B     		ldr	r3, .L116+20
 994 03ec 1B78     		ldrb	r3, [r3]	@ zero_extendqisi2
ARM GAS  /tmp/ccyXqcsa.s 			page 27


 192:src/m4_timer_uart_app.c **** 		{	
 995              		.loc 2 192 5 view .LVU275
 996 03ee ABB1     		cbz	r3, .L84
 192:src/m4_timer_uart_app.c **** 		{	
 997              		.loc 2 192 22 discriminator 1 view .LVU276
 998 03f0 5E4B     		ldr	r3, .L116+24
 999 03f2 1B78     		ldrb	r3, [r3]	@ zero_extendqisi2
 192:src/m4_timer_uart_app.c **** 		{	
 1000              		.loc 2 192 19 discriminator 1 view .LVU277
 1001 03f4 93B9     		cbnz	r3, .L84
 195:src/m4_timer_uart_app.c **** 			{
 1002              		.loc 2 195 4 is_stmt 1 view .LVU278
 195:src/m4_timer_uart_app.c **** 			{
 1003              		.loc 2 195 21 is_stmt 0 view .LVU279
 1004 03f6 5E4B     		ldr	r3, .L116+28
 1005 03f8 1B78     		ldrb	r3, [r3]	@ zero_extendqisi2
 195:src/m4_timer_uart_app.c **** 			{
 1006              		.loc 2 195 6 view .LVU280
 1007 03fa 002B     		cmp	r3, #0
 1008 03fc 58D1     		bne	.L85
 197:src/m4_timer_uart_app.c **** 				u16_changePeriod = u16_changePeriod + ((u8_incoming - '0') * 1000);
 1009              		.loc 2 197 5 is_stmt 1 view .LVU281
 1010 03fe 0133     		adds	r3, r3, #1
 1011 0400 5B4A     		ldr	r2, .L116+28
 1012 0402 1370     		strb	r3, [r2]
 198:src/m4_timer_uart_app.c **** 			}
 1013              		.loc 2 198 5 view .LVU282
 198:src/m4_timer_uart_app.c **** 			}
 1014              		.loc 2 198 57 is_stmt 0 view .LVU283
 1015 0404 534B     		ldr	r3, .L116
 1016 0406 1B78     		ldrb	r3, [r3]	@ zero_extendqisi2
 1017 0408 303B     		subs	r3, r3, #48
 198:src/m4_timer_uart_app.c **** 			}
 1018              		.loc 2 198 41 view .LVU284
 1019 040a C3EB4312 		rsb	r2, r3, r3, lsl #5
 1020 040e 03EB8203 		add	r3, r3, r2, lsl #2
 1021 0412 5849     		ldr	r1, .L116+32
 1022 0414 0A88     		ldrh	r2, [r1]
 1023 0416 02EBC303 		add	r3, r2, r3, lsl #3
 198:src/m4_timer_uart_app.c **** 			}
 1024              		.loc 2 198 22 view .LVU285
 1025 041a 0B80     		strh	r3, [r1]	@ movhi
 1026              	.L84:
 226:src/m4_timer_uart_app.c **** 
 1027              		.loc 2 226 3 is_stmt 1 view .LVU286
 226:src/m4_timer_uart_app.c **** 
 1028              		.loc 2 226 20 is_stmt 0 view .LVU287
 1029 041c 534B     		ldr	r3, .L116+24
 1030 041e 0022     		movs	r2, #0
 1031 0420 1A70     		strb	r2, [r3]
 228:src/m4_timer_uart_app.c **** 		{
 1032              		.loc 2 228 3 is_stmt 1 view .LVU288
 228:src/m4_timer_uart_app.c **** 		{
 1033              		.loc 2 228 6 is_stmt 0 view .LVU289
 1034 0422 4F4B     		ldr	r3, .L116+12
 1035 0424 1B78     		ldrb	r3, [r3]	@ zero_extendqisi2
 228:src/m4_timer_uart_app.c **** 		{
ARM GAS  /tmp/ccyXqcsa.s 			page 28


 1036              		.loc 2 228 5 view .LVU290
 1037 0426 002B     		cmp	r3, #0
 1038 0428 40F08880 		bne	.L88
 230:src/m4_timer_uart_app.c **** 			ESOS_TASK_WAIT_ON_SEND_UINT8( u8_incoming );
 1039              		.loc 2 230 4 is_stmt 1 view .LVU291
 230:src/m4_timer_uart_app.c **** 			ESOS_TASK_WAIT_ON_SEND_UINT8( u8_incoming );
 1040              		.loc 2 230 4 view .LVU292
 1041 042c E623     		movs	r3, #230
 1042 042e 2380     		strh	r3, [r4]	@ movhi
 1043              	.L45:
 230:src/m4_timer_uart_app.c **** 			ESOS_TASK_WAIT_ON_SEND_UINT8( u8_incoming );
 1044              		.loc 2 230 4 discriminator 1 view .LVU293
 230:src/m4_timer_uart_app.c **** 			ESOS_TASK_WAIT_ON_SEND_UINT8( u8_incoming );
 1045              		.loc 2 230 4 discriminator 1 view .LVU294
 1046 0430 A378     		ldrb	r3, [r4, #2]	@ zero_extendqisi2
 1047 0432 13F00405 		ands	r5, r3, #4
 1048 0436 70D1     		bne	.L111
 230:src/m4_timer_uart_app.c **** 			ESOS_TASK_WAIT_ON_SEND_UINT8( u8_incoming );
 1049              		.loc 2 230 4 discriminator 3 view .LVU295
 1050 0438 474A     		ldr	r2, .L116+4
 1051 043a 1268     		ldr	r2, [r2]
 1052 043c 12F0040F 		tst	r2, #4
 1053 0440 6FD1     		bne	.L90
 230:src/m4_timer_uart_app.c **** 			ESOS_TASK_WAIT_ON_SEND_UINT8( u8_incoming );
 1054              		.loc 2 230 4 discriminator 4 view .LVU296
 1055 0442 23F00103 		bic	r3, r3, #1
 1056 0446 A370     		strb	r3, [r4, #2]
 1057              	.L91:
 230:src/m4_timer_uart_app.c **** 			ESOS_TASK_WAIT_ON_SEND_UINT8( u8_incoming );
 1058              		.loc 2 230 4 discriminator 7 view .LVU297
 1059 0448 A378     		ldrb	r3, [r4, #2]	@ zero_extendqisi2
 1060 044a 13F0010F 		tst	r3, #1
 1061 044e 7ED1     		bne	.L48
 230:src/m4_timer_uart_app.c **** 			ESOS_TASK_WAIT_ON_SEND_UINT8( u8_incoming );
 1062              		.loc 2 230 4 discriminator 9 view .LVU298
 230:src/m4_timer_uart_app.c **** 			ESOS_TASK_WAIT_ON_SEND_UINT8( u8_incoming );
 1063              		.loc 2 230 4 discriminator 9 view .LVU299
 1064 0450 414A     		ldr	r2, .L116+4
 1065 0452 1368     		ldr	r3, [r2]
 1066 0454 43F00403 		orr	r3, r3, #4
 1067 0458 1360     		str	r3, [r2]
 231:src/m4_timer_uart_app.c **** 			ESOS_TASK_SIGNAL_AVAILABLE_OUT_COMM();
 1068              		.loc 2 231 4 discriminator 9 view .LVU300
 231:src/m4_timer_uart_app.c **** 			ESOS_TASK_SIGNAL_AVAILABLE_OUT_COMM();
 1069              		.loc 2 231 4 discriminator 9 view .LVU301
 1070 045a 404B     		ldr	r3, .L116+8
 1071 045c 0022     		movs	r2, #0
 1072 045e 1A80     		strh	r2, [r3]	@ movhi
 231:src/m4_timer_uart_app.c **** 			ESOS_TASK_SIGNAL_AVAILABLE_OUT_COMM();
 1073              		.loc 2 231 4 discriminator 9 view .LVU302
 231:src/m4_timer_uart_app.c **** 			ESOS_TASK_SIGNAL_AVAILABLE_OUT_COMM();
 1074              		.loc 2 231 4 discriminator 9 view .LVU303
 231:src/m4_timer_uart_app.c **** 			ESOS_TASK_SIGNAL_AVAILABLE_OUT_COMM();
 1075              		.loc 2 231 4 discriminator 9 view .LVU304
 231:src/m4_timer_uart_app.c **** 			ESOS_TASK_SIGNAL_AVAILABLE_OUT_COMM();
 1076              		.loc 2 231 4 discriminator 9 view .LVU305
 1077 0460 E723     		movs	r3, #231
ARM GAS  /tmp/ccyXqcsa.s 			page 29


 1078 0462 2380     		strh	r3, [r4]	@ movhi
 1079 0464 62E6     		b	.L46
 1080              	.L108:
 170:src/m4_timer_uart_app.c **** 				ESOS_TASK_WAIT_ON_SEND_UINT8( 'L' );
 1081              		.loc 2 170 5 discriminator 2 view .LVU306
 1082 0466 0423     		movs	r3, #4
 1083 0468 A370     		strb	r3, [r4, #2]
 170:src/m4_timer_uart_app.c **** 				ESOS_TASK_WAIT_ON_SEND_UINT8( 'L' );
 1084              		.loc 2 170 5 discriminator 2 view .LVU307
 1085 046a 0325     		movs	r5, #3
 1086 046c 6FE0     		b	.L48
 1087              	.L75:
 170:src/m4_timer_uart_app.c **** 				ESOS_TASK_WAIT_ON_SEND_UINT8( 'L' );
 1088              		.loc 2 170 5 discriminator 5 view .LVU308
 1089 046e 43F00103 		orr	r3, r3, #1
 1090 0472 A370     		strb	r3, [r4, #2]
 1091 0474 73E7     		b	.L76
 1092              	.L109:
 171:src/m4_timer_uart_app.c **** 				ESOS_TASK_WAIT_ON_SEND_UINT8_AS_DEC_STRING( u8_incoming );
 1093              		.loc 2 171 5 discriminator 2 view .LVU309
 1094 0476 0423     		movs	r3, #4
 1095 0478 A370     		strb	r3, [r4, #2]
 171:src/m4_timer_uart_app.c **** 				ESOS_TASK_WAIT_ON_SEND_UINT8_AS_DEC_STRING( u8_incoming );
 1096              		.loc 2 171 5 discriminator 2 view .LVU310
 1097 047a 0325     		movs	r5, #3
 1098 047c 67E0     		b	.L48
 1099              	.L78:
 171:src/m4_timer_uart_app.c **** 				ESOS_TASK_WAIT_ON_SEND_UINT8_AS_DEC_STRING( u8_incoming );
 1100              		.loc 2 171 5 discriminator 5 view .LVU311
 1101 047e A378     		ldrb	r3, [r4, #2]	@ zero_extendqisi2
 1102 0480 43F00103 		orr	r3, r3, #1
 1103 0484 A370     		strb	r3, [r4, #2]
 1104 0486 87E7     		b	.L79
 1105              	.L110:
 172:src/m4_timer_uart_app.c **** 				ESOS_TASK_SIGNAL_AVAILABLE_OUT_COMM();
 1106              		.loc 2 172 5 discriminator 2 view .LVU312
 1107 0488 0423     		movs	r3, #4
 1108 048a A370     		strb	r3, [r4, #2]
 172:src/m4_timer_uart_app.c **** 				ESOS_TASK_SIGNAL_AVAILABLE_OUT_COMM();
 1109              		.loc 2 172 5 discriminator 2 view .LVU313
 1110 048c 0325     		movs	r5, #3
 1111 048e 5EE0     		b	.L48
 1112              	.L81:
 172:src/m4_timer_uart_app.c **** 				ESOS_TASK_SIGNAL_AVAILABLE_OUT_COMM();
 1113              		.loc 2 172 5 discriminator 5 view .LVU314
 1114 0490 A378     		ldrb	r3, [r4, #2]	@ zero_extendqisi2
 1115 0492 43F00103 		orr	r3, r3, #1
 1116 0496 A370     		strb	r3, [r4, #2]
 1117 0498 97E7     		b	.L82
 1118              	.L102:
 183:src/m4_timer_uart_app.c **** 			b_changeFlagSkip = TRUE;
 1119              		.loc 2 183 4 view .LVU315
 183:src/m4_timer_uart_app.c **** 			b_changeFlagSkip = TRUE;
 1120              		.loc 2 183 17 is_stmt 0 view .LVU316
 1121 049a 0123     		movs	r3, #1
 1122 049c 324A     		ldr	r2, .L116+20
 1123 049e 1370     		strb	r3, [r2]
ARM GAS  /tmp/ccyXqcsa.s 			page 30


 184:src/m4_timer_uart_app.c **** 			u16_changePeriod = 0;
 1124              		.loc 2 184 4 is_stmt 1 view .LVU317
 184:src/m4_timer_uart_app.c **** 			u16_changePeriod = 0;
 1125              		.loc 2 184 21 is_stmt 0 view .LVU318
 1126 04a0 324A     		ldr	r2, .L116+24
 1127 04a2 1370     		strb	r3, [r2]
 185:src/m4_timer_uart_app.c **** 			u8_exclamCount = 0;
 1128              		.loc 2 185 4 is_stmt 1 view .LVU319
 185:src/m4_timer_uart_app.c **** 			u8_exclamCount = 0;
 1129              		.loc 2 185 21 is_stmt 0 view .LVU320
 1130 04a4 0023     		movs	r3, #0
 1131 04a6 334A     		ldr	r2, .L116+32
 1132 04a8 1380     		strh	r3, [r2]	@ movhi
 186:src/m4_timer_uart_app.c **** 		}
 1133              		.loc 2 186 4 is_stmt 1 view .LVU321
 186:src/m4_timer_uart_app.c **** 		}
 1134              		.loc 2 186 19 is_stmt 0 view .LVU322
 1135 04aa 2E4A     		ldr	r2, .L116+16
 1136 04ac 1370     		strb	r3, [r2]
 1137 04ae 9CE7     		b	.L59
 1138              	.L85:
 202:src/m4_timer_uart_app.c **** 			{
 1139              		.loc 2 202 9 is_stmt 1 view .LVU323
 202:src/m4_timer_uart_app.c **** 			{
 1140              		.loc 2 202 11 is_stmt 0 view .LVU324
 1141 04b0 012B     		cmp	r3, #1
 1142 04b2 14D0     		beq	.L112
 209:src/m4_timer_uart_app.c **** 			{
 1143              		.loc 2 209 9 is_stmt 1 view .LVU325
 209:src/m4_timer_uart_app.c **** 			{
 1144              		.loc 2 209 11 is_stmt 0 view .LVU326
 1145 04b4 022B     		cmp	r3, #2
 1146 04b6 22D0     		beq	.L113
 216:src/m4_timer_uart_app.c **** 			{
 1147              		.loc 2 216 9 is_stmt 1 view .LVU327
 216:src/m4_timer_uart_app.c **** 			{
 1148              		.loc 2 216 11 is_stmt 0 view .LVU328
 1149 04b8 032B     		cmp	r3, #3
 1150 04ba AFD1     		bne	.L84
 218:src/m4_timer_uart_app.c **** 				u16_encode_periodHalf = u16_changePeriod / 2;
 1151              		.loc 2 218 5 is_stmt 1 view .LVU329
 218:src/m4_timer_uart_app.c **** 				u16_encode_periodHalf = u16_changePeriod / 2;
 1152              		.loc 2 218 41 is_stmt 0 view .LVU330
 1153 04bc 254B     		ldr	r3, .L116
 1154 04be 1B78     		ldrb	r3, [r3]	@ zero_extendqisi2
 1155 04c0 2C4A     		ldr	r2, .L116+32
 1156 04c2 1188     		ldrh	r1, [r2]
 1157 04c4 0B44     		add	r3, r3, r1
 1158 04c6 303B     		subs	r3, r3, #48
 1159 04c8 9BB2     		uxth	r3, r3
 218:src/m4_timer_uart_app.c **** 				u16_encode_periodHalf = u16_changePeriod / 2;
 1160              		.loc 2 218 22 view .LVU331
 1161 04ca 1380     		strh	r3, [r2]	@ movhi
 219:src/m4_timer_uart_app.c **** 				
 1162              		.loc 2 219 5 is_stmt 1 view .LVU332
 219:src/m4_timer_uart_app.c **** 				
 1163              		.loc 2 219 27 is_stmt 0 view .LVU333
ARM GAS  /tmp/ccyXqcsa.s 			page 31


 1164 04cc 5B08     		lsrs	r3, r3, #1
 1165 04ce 2A4A     		ldr	r2, .L116+36
 1166 04d0 1380     		strh	r3, [r2]	@ movhi
 221:src/m4_timer_uart_app.c **** 				u8_digitCount = 0;
 1167              		.loc 2 221 5 is_stmt 1 view .LVU334
 221:src/m4_timer_uart_app.c **** 				u8_digitCount = 0;
 1168              		.loc 2 221 18 is_stmt 0 view .LVU335
 1169 04d2 0023     		movs	r3, #0
 1170 04d4 244A     		ldr	r2, .L116+20
 1171 04d6 1370     		strb	r3, [r2]
 222:src/m4_timer_uart_app.c **** 			}
 1172              		.loc 2 222 5 is_stmt 1 view .LVU336
 222:src/m4_timer_uart_app.c **** 			}
 1173              		.loc 2 222 19 is_stmt 0 view .LVU337
 1174 04d8 254A     		ldr	r2, .L116+28
 1175 04da 1370     		strb	r3, [r2]
 1176 04dc 9EE7     		b	.L84
 1177              	.L112:
 204:src/m4_timer_uart_app.c **** 				u16_changePeriod = u16_changePeriod + ((u8_incoming - '0') * 100);
 1178              		.loc 2 204 5 is_stmt 1 view .LVU338
 1179 04de 0133     		adds	r3, r3, #1
 1180 04e0 234A     		ldr	r2, .L116+28
 1181 04e2 1370     		strb	r3, [r2]
 205:src/m4_timer_uart_app.c **** 			}
 1182              		.loc 2 205 5 view .LVU339
 205:src/m4_timer_uart_app.c **** 			}
 1183              		.loc 2 205 57 is_stmt 0 view .LVU340
 1184 04e4 1B4B     		ldr	r3, .L116
 1185 04e6 1B78     		ldrb	r3, [r3]	@ zero_extendqisi2
 1186 04e8 303B     		subs	r3, r3, #48
 205:src/m4_timer_uart_app.c **** 			}
 1187              		.loc 2 205 41 view .LVU341
 1188 04ea 03EB8303 		add	r3, r3, r3, lsl #2
 1189 04ee 03EB8303 		add	r3, r3, r3, lsl #2
 1190 04f2 2049     		ldr	r1, .L116+32
 1191 04f4 0A88     		ldrh	r2, [r1]
 1192 04f6 02EB8303 		add	r3, r2, r3, lsl #2
 205:src/m4_timer_uart_app.c **** 			}
 1193              		.loc 2 205 22 view .LVU342
 1194 04fa 0B80     		strh	r3, [r1]	@ movhi
 1195 04fc 8EE7     		b	.L84
 1196              	.L113:
 211:src/m4_timer_uart_app.c **** 				u16_changePeriod = u16_changePeriod + ((u8_incoming - '0') * 10);
 1197              		.loc 2 211 5 is_stmt 1 view .LVU343
 1198 04fe 0133     		adds	r3, r3, #1
 1199 0500 1B4A     		ldr	r2, .L116+28
 1200 0502 1370     		strb	r3, [r2]
 212:src/m4_timer_uart_app.c **** 			}
 1201              		.loc 2 212 5 view .LVU344
 212:src/m4_timer_uart_app.c **** 			}
 1202              		.loc 2 212 57 is_stmt 0 view .LVU345
 1203 0504 134B     		ldr	r3, .L116
 1204 0506 1B78     		ldrb	r3, [r3]	@ zero_extendqisi2
 1205 0508 303B     		subs	r3, r3, #48
 212:src/m4_timer_uart_app.c **** 			}
 1206              		.loc 2 212 41 view .LVU346
 1207 050a 03EB8303 		add	r3, r3, r3, lsl #2
ARM GAS  /tmp/ccyXqcsa.s 			page 32


 1208 050e 1949     		ldr	r1, .L116+32
 1209 0510 0A88     		ldrh	r2, [r1]
 1210 0512 02EB4303 		add	r3, r2, r3, lsl #1
 212:src/m4_timer_uart_app.c **** 			}
 1211              		.loc 2 212 22 view .LVU347
 1212 0516 0B80     		strh	r3, [r1]	@ movhi
 1213 0518 80E7     		b	.L84
 1214              	.L111:
 230:src/m4_timer_uart_app.c **** 			ESOS_TASK_WAIT_ON_SEND_UINT8( u8_incoming );
 1215              		.loc 2 230 4 is_stmt 1 discriminator 2 view .LVU348
 1216 051a 0423     		movs	r3, #4
 1217 051c A370     		strb	r3, [r4, #2]
 230:src/m4_timer_uart_app.c **** 			ESOS_TASK_WAIT_ON_SEND_UINT8( u8_incoming );
 1218              		.loc 2 230 4 discriminator 2 view .LVU349
 1219 051e 0325     		movs	r5, #3
 1220 0520 15E0     		b	.L48
 1221              	.L90:
 230:src/m4_timer_uart_app.c **** 			ESOS_TASK_WAIT_ON_SEND_UINT8( u8_incoming );
 1222              		.loc 2 230 4 discriminator 5 view .LVU350
 1223 0522 43F00103 		orr	r3, r3, #1
 1224 0526 A370     		strb	r3, [r4, #2]
 1225 0528 8EE7     		b	.L91
 1226              	.L104:
 231:src/m4_timer_uart_app.c **** 			ESOS_TASK_SIGNAL_AVAILABLE_OUT_COMM();
 1227              		.loc 2 231 4 discriminator 2 view .LVU351
 1228 052a 0423     		movs	r3, #4
 1229 052c A370     		strb	r3, [r4, #2]
 231:src/m4_timer_uart_app.c **** 			ESOS_TASK_SIGNAL_AVAILABLE_OUT_COMM();
 1230              		.loc 2 231 4 discriminator 2 view .LVU352
 1231 052e 0325     		movs	r5, #3
 1232 0530 0DE0     		b	.L48
 1233              	.L93:
 231:src/m4_timer_uart_app.c **** 			ESOS_TASK_SIGNAL_AVAILABLE_OUT_COMM();
 1234              		.loc 2 231 4 discriminator 5 view .LVU353
 1235 0532 A378     		ldrb	r3, [r4, #2]	@ zero_extendqisi2
 1236 0534 43F00103 		orr	r3, r3, #1
 1237 0538 A370     		strb	r3, [r4, #2]
 1238 053a 08E6     		b	.L94
 1239              	.L88:
 233:src/m4_timer_uart_app.c **** 		}
 234:src/m4_timer_uart_app.c **** 		
 235:src/m4_timer_uart_app.c **** 		else
 236:src/m4_timer_uart_app.c **** 		{
 237:src/m4_timer_uart_app.c **** 			b_skipPrint = FALSE;
 1240              		.loc 2 237 4 view .LVU354
 1241              		.loc 2 237 16 is_stmt 0 view .LVU355
 1242 053c 084B     		ldr	r3, .L116+12
 1243 053e 0022     		movs	r2, #0
 1244 0540 1A70     		strb	r2, [r3]
 1245 0542 CFE5     		b	.L36
 1246              	.LVL28:
 1247              	.L37:
 238:src/m4_timer_uart_app.c **** 		}
 239:src/m4_timer_uart_app.c **** 		
 240:src/m4_timer_uart_app.c **** 		} // endof while(TRUE)
 241:src/m4_timer_uart_app.c **** 	ESOS_TASK_END();
 1248              		.loc 2 241 2 is_stmt 1 view .LVU356
ARM GAS  /tmp/ccyXqcsa.s 			page 33


 1249              		.loc 2 241 2 view .LVU357
 1250 0544 0823     		movs	r3, #8
 1251 0546 A370     		strb	r3, [r4, #2]
 1252              		.loc 2 241 2 view .LVU358
 1253 0548 0023     		movs	r3, #0
 1254 054a 2380     		strh	r3, [r4]	@ movhi
 1255              		.loc 2 241 2 view .LVU359
 1256              		.loc 2 241 2 view .LVU360
 1257              		.loc 2 241 2 view .LVU361
 1258 054c 0325     		movs	r5, #3
 1259              	.LVL29:
 1260              	.L48:
 1261              		.loc 2 241 17 discriminator 1 view .LVU362
 242:src/m4_timer_uart_app.c **** } // end usart_comms()
 1262              		.loc 2 242 1 is_stmt 0 discriminator 1 view .LVU363
 1263 054e 2846     		mov	r0, r5
 1264 0550 70BD     		pop	{r4, r5, r6, pc}
 1265              	.LVL30:
 1266              	.L117:
 1267              		.loc 2 242 1 discriminator 1 view .LVU364
 1268 0552 00BF     		.align	2
 1269              	.L116:
 1270 0554 00000000 		.word	.LANCHOR1
 1271 0558 00000000 		.word	__esos_u32SystemFlags
 1272 055c 00000000 		.word	__stChildTaskTx
 1273 0560 00000000 		.word	.LANCHOR8
 1274 0564 00000000 		.word	.LANCHOR5
 1275 0568 00000000 		.word	.LANCHOR9
 1276 056c 00000000 		.word	.LANCHOR10
 1277 0570 00000000 		.word	.LANCHOR12
 1278 0574 00000000 		.word	.LANCHOR11
 1279 0578 00000000 		.word	.LANCHOR0
 1280              		.cfi_endproc
 1281              	.LFE11:
 1283              		.section	.text.__user_init_hw,"ax",%progbits
 1284              		.align	1
 1285              		.global	__user_init_hw
 1286              		.syntax unified
 1287              		.thumb
 1288              		.thumb_func
 1290              	__user_init_hw:
 1291              	.LFB12:
 243:src/m4_timer_uart_app.c **** 
 244:src/m4_timer_uart_app.c **** /************************************************************************
 245:src/m4_timer_uart_app.c ****  * User supplied functions
 246:src/m4_timer_uart_app.c ****  ************************************************************************
 247:src/m4_timer_uart_app.c ****  */
 248:src/m4_timer_uart_app.c **** void __user_init_hw(void) {
 1292              		.loc 2 248 27 is_stmt 1 view -0
 1293              		.cfi_startproc
 1294              		@ args = 0, pretend = 0, frame = 0
 1295              		@ frame_needed = 0, uses_anonymous_args = 0
 1296 0000 08B5     		push	{r3, lr}
 1297              	.LCFI5:
 1298              		.cfi_def_cfa_offset 8
 1299              		.cfi_offset 3, -8
 1300              		.cfi_offset 14, -4
ARM GAS  /tmp/ccyXqcsa.s 			page 34


 249:src/m4_timer_uart_app.c ****   /* GPIO Ports Clock Enable */
 250:src/m4_timer_uart_app.c ****   rcc_periph_clock_enable(GPIOA);
 1301              		.loc 2 250 3 view .LVU366
 1302 0002 0020     		movs	r0, #0
 1303 0004 FFF7FEFF 		bl	rcc_periph_clock_enable
 1304              	.LVL31:
 251:src/m4_timer_uart_app.c ****   rcc_periph_clock_enable(GPIOC);
 1305              		.loc 2 251 3 view .LVU367
 1306 0008 4FF40060 		mov	r0, #2048
 1307 000c FFF7FEFF 		bl	rcc_periph_clock_enable
 1308              	.LVL32:
 252:src/m4_timer_uart_app.c **** 
 253:src/m4_timer_uart_app.c ****   /*Configure GPIO pin : PC13 */
 254:src/m4_timer_uart_app.c ****   gpio_mode_setup(B1_Port, GPIO_MODE_INPUT, GPIO_PUPD_NONE, B1_Pin);
 1309              		.loc 2 254 3 view .LVU368
 1310 0010 4FF40053 		mov	r3, #8192
 1311 0014 0022     		movs	r2, #0
 1312 0016 1146     		mov	r1, r2
 1313 0018 0548     		ldr	r0, .L120
 1314 001a FFF7FEFF 		bl	gpio_mode_setup
 1315              	.LVL33:
 255:src/m4_timer_uart_app.c **** 
 256:src/m4_timer_uart_app.c ****   /*Configure GPIO pin : LED2_Pin */
 257:src/m4_timer_uart_app.c ****   gpio_mode_setup(LD2_Port, GPIO_MODE_OUTPUT, GPIO_PUPD_NONE, LD2_Pin);
 1316              		.loc 2 257 3 view .LVU369
 1317 001e 2023     		movs	r3, #32
 1318 0020 0022     		movs	r2, #0
 1319 0022 0121     		movs	r1, #1
 1320 0024 4FF09040 		mov	r0, #1207959552
 1321 0028 FFF7FEFF 		bl	gpio_mode_setup
 1322              	.LVL34:
 258:src/m4_timer_uart_app.c **** 
 259:src/m4_timer_uart_app.c **** }
 1323              		.loc 2 259 1 is_stmt 0 view .LVU370
 1324 002c 08BD     		pop	{r3, pc}
 1325              	.L121:
 1326 002e 00BF     		.align	2
 1327              	.L120:
 1328 0030 00080048 		.word	1207961600
 1329              		.cfi_endproc
 1330              	.LFE12:
 1332              		.section	.rodata.user_init.str1.4,"aMS",%progbits,1
 1333              		.align	2
 1334              	.LC0:
 1335 0000 0A737263 		.ascii	"\012src/m4_timer_uart_app.c, built on Mar 23 2022 a"
 1335      2F6D345F 
 1335      74696D65 
 1335      725F7561 
 1335      72745F61 
 1336 0030 74203038 		.ascii	"t 08:24:34\012\000"
 1336      3A32343A 
 1336      33340A00 
 1337              		.section	.text.user_init,"ax",%progbits
 1338              		.align	1
 1339              		.global	user_init
 1340              		.syntax unified
 1341              		.thumb
ARM GAS  /tmp/ccyXqcsa.s 			page 35


 1342              		.thumb_func
 1344              	user_init:
 1345              	.LFB13:
 260:src/m4_timer_uart_app.c **** 
 261:src/m4_timer_uart_app.c **** 
 262:src/m4_timer_uart_app.c **** 
 263:src/m4_timer_uart_app.c **** /******************************************************************************
 264:src/m4_timer_uart_app.c ****  * Function:        void user_init(void)
 265:src/m4_timer_uart_app.c ****  *
 266:src/m4_timer_uart_app.c ****  * PreCondition:    None
 267:src/m4_timer_uart_app.c ****  *
 268:src/m4_timer_uart_app.c ****  * Input:           None
 269:src/m4_timer_uart_app.c ****  *
 270:src/m4_timer_uart_app.c ****  * Output:          None
 271:src/m4_timer_uart_app.c ****  *
 272:src/m4_timer_uart_app.c ****  * Side Effects:    None
 273:src/m4_timer_uart_app.c ****  *
 274:src/m4_timer_uart_app.c ****  * Overview:        user_init is a centralized initialization routine where
 275:src/m4_timer_uart_app.c ****  *                  the user can setup their application.   It is called
 276:src/m4_timer_uart_app.c ****  *                  automagically by ES_OS during the operating system
 277:src/m4_timer_uart_app.c ****  *                  initialization.
 278:src/m4_timer_uart_app.c ****  *
 279:src/m4_timer_uart_app.c ****  * Note:            The user should set up any state machines and init
 280:src/m4_timer_uart_app.c ****  *                  all application variables.  They can also turn on
 281:src/m4_timer_uart_app.c ****  *                  any needed peripherals here.
 282:src/m4_timer_uart_app.c ****  *
 283:src/m4_timer_uart_app.c ****  *                  The user SHALL NOT mess with the interrupt hardware
 284:src/m4_timer_uart_app.c ****  *                  directly!!!  The ES_OS must be aware of the interrupts
 285:src/m4_timer_uart_app.c ****  *                  and provides osXXXXXXX functions for the user to use.
 286:src/m4_timer_uart_app.c ****  *                  Using these ES_OS-provided functions, the user may
 287:src/m4_timer_uart_app.c ****  *                  (and probably should) initialize, register, and enable
 288:src/m4_timer_uart_app.c ****  *                  interrupts in this routine.
 289:src/m4_timer_uart_app.c ****  *
 290:src/m4_timer_uart_app.c ****  *                  Furthermore, the user should register AT LEAST one
 291:src/m4_timer_uart_app.c ****  *                  user application task here (via esos_RegisterTask) or
 292:src/m4_timer_uart_app.c ****  *                  the ES_OS scheduler will have nothing to schedule
 293:src/m4_timer_uart_app.c ****  *                  to run when this function returns.
 294:src/m4_timer_uart_app.c ****  *
 295:src/m4_timer_uart_app.c ****  *****************************************************************************/
 296:src/m4_timer_uart_app.c **** void user_init(void) {
 1346              		.loc 2 296 22 is_stmt 1 view -0
 1347              		.cfi_startproc
 1348              		@ args = 0, pretend = 0, frame = 0
 1349              		@ frame_needed = 0, uses_anonymous_args = 0
 1350 0000 08B5     		push	{r3, lr}
 1351              	.LCFI6:
 1352              		.cfi_def_cfa_offset 8
 1353              		.cfi_offset 3, -8
 1354              		.cfi_offset 14, -4
 297:src/m4_timer_uart_app.c **** 
 298:src/m4_timer_uart_app.c ****   // setup our software structures here
 299:src/m4_timer_uart_app.c ****   
 300:src/m4_timer_uart_app.c ****   // call our function to setup the hardware we like it.
 301:src/m4_timer_uart_app.c ****   __user_init_hw();
 1355              		.loc 2 301 3 view .LVU372
 1356 0002 FFF7FEFF 		bl	__user_init_hw
 1357              	.LVL35:
ARM GAS  /tmp/ccyXqcsa.s 			page 36


 302:src/m4_timer_uart_app.c **** 
 303:src/m4_timer_uart_app.c ****   // Drive the UART directly.....  to print the HELLO_MSG
 304:src/m4_timer_uart_app.c ****   __esos_unsafe_PutString( HELLO_MSG );
 1358              		.loc 2 304 3 view .LVU373
 1359 0006 0548     		ldr	r0, .L124
 1360 0008 FFF7FEFF 		bl	__esos_unsafe_PutString
 1361              	.LVL36:
 305:src/m4_timer_uart_app.c **** 
 306:src/m4_timer_uart_app.c ****   /*
 307:src/m4_timer_uart_app.c ****    * Now, let's get down and dirty with ESOS and our user tasks
 308:src/m4_timer_uart_app.c ****    *
 309:src/m4_timer_uart_app.c ****    *   Once tasks are registered, they will start executing in
 310:src/m4_timer_uart_app.c ****    *   the ESOS scheduler.
 311:src/m4_timer_uart_app.c ****    */
 312:src/m4_timer_uart_app.c ****   esos_RegisterTask( flash_LED );
 1362              		.loc 2 312 3 view .LVU374
 1363 000c 0448     		ldr	r0, .L124+4
 1364 000e FFF7FEFF 		bl	esos_RegisterTask
 1365              	.LVL37:
 313:src/m4_timer_uart_app.c ****   esos_RegisterTask( usart_comms );
 1366              		.loc 2 313 3 view .LVU375
 1367 0012 0448     		ldr	r0, .L124+8
 1368 0014 FFF7FEFF 		bl	esos_RegisterTask
 1369              	.LVL38:
 314:src/m4_timer_uart_app.c **** 
 315:src/m4_timer_uart_app.c **** } // end user_init()
 1370              		.loc 2 315 1 is_stmt 0 view .LVU376
 1371 0018 08BD     		pop	{r3, pc}
 1372              	.L125:
 1373 001a 00BF     		.align	2
 1374              	.L124:
 1375 001c 00000000 		.word	.LC0
 1376 0020 00000000 		.word	flash_LED
 1377 0024 00000000 		.word	usart_comms
 1378              		.cfi_endproc
 1379              	.LFE13:
 1381              		.section	.bss.ac_charArr.6,"aw",%nobits
 1382              		.align	2
 1383              		.set	.LANCHOR6,. + 0
 1386              	ac_charArr.6:
 1387 0000 00000000 		.space	10
 1387      00000000 
 1387      0000
 1388              		.section	.bss.b_changeFlag.3,"aw",%nobits
 1389              		.set	.LANCHOR9,. + 0
 1392              	b_changeFlag.3:
 1393 0000 00       		.space	1
 1394              		.section	.bss.b_changeFlagSkip.2,"aw",%nobits
 1395              		.set	.LANCHOR10,. + 0
 1398              	b_changeFlagSkip.2:
 1399 0000 00       		.space	1
 1400              		.section	.bss.b_skipPrint.4,"aw",%nobits
 1401              		.set	.LANCHOR8,. + 0
 1404              	b_skipPrint.4:
 1405 0000 00       		.space	1
 1406              		.section	.bss.u16_changePeriod.1,"aw",%nobits
 1407              		.align	1
ARM GAS  /tmp/ccyXqcsa.s 			page 37


 1408              		.set	.LANCHOR11,. + 0
 1411              	u16_changePeriod.1:
 1412 0000 0000     		.space	2
 1413              		.section	.bss.u8_charCount.5,"aw",%nobits
 1414              		.set	.LANCHOR7,. + 0
 1417              	u8_charCount.5:
 1418 0000 00       		.space	1
 1419              		.section	.bss.u8_countDecode.9,"aw",%nobits
 1420              		.set	.LANCHOR3,. + 0
 1423              	u8_countDecode.9:
 1424 0000 00       		.space	1
 1425              		.section	.bss.u8_countEncode.10,"aw",%nobits
 1426              		.set	.LANCHOR2,. + 0
 1429              	u8_countEncode.10:
 1430 0000 00       		.space	1
 1431              		.section	.bss.u8_digitCount.0,"aw",%nobits
 1432              		.set	.LANCHOR12,. + 0
 1435              	u8_digitCount.0:
 1436 0000 00       		.space	1
 1437              		.section	.bss.u8_exclamCount.7,"aw",%nobits
 1438              		.set	.LANCHOR5,. + 0
 1441              	u8_exclamCount.7:
 1442 0000 00       		.space	1
 1443              		.section	.bss.u8_incoming.11,"aw",%nobits
 1444              		.set	.LANCHOR1,. + 0
 1447              	u8_incoming.11:
 1448 0000 00       		.space	1
 1449              		.section	.data.u16_encode_periodHalf,"aw"
 1450              		.align	1
 1451              		.set	.LANCHOR0,. + 0
 1454              	u16_encode_periodHalf:
 1455 0000 FA00     		.short	250
 1456              		.section	.rodata.au8_key.8,"a"
 1457              		.align	2
 1458              		.set	.LANCHOR4,. + 0
 1461              	au8_key.8:
 1462 0000 54454E4E 		.ascii	"TENNESSEETECH"
 1462      45535345 
 1462      45544543 
 1462      48
 1463              		.text
 1464              	.Letext0:
 1465              		.file 3 "/home/ryan/Documents/Gitlab/embedded-systems-development-milestones/ARM/gcc-arm-none-eabi
 1466              		.file 4 "/home/ryan/Documents/Gitlab/embedded-systems-development-milestones/ARM/gcc-arm-none-eabi
 1467              		.file 5 "/home/ryan/Documents/Github/esos32/include/lc-switch.h"
 1468              		.file 6 "/home/ryan/Documents/Github/esos32/include/esos_cb.h"
 1469              		.file 7 "/home/ryan/Documents/Github/esos32/include/esos_mail.h"
 1470              		.file 8 "/home/ryan/Documents/Github/esos32/include/esos_task.h"
 1471              		.file 9 "/home/ryan/Documents/Github/esos32/include/esos_comm.h"
 1472              		.file 10 "/home/ryan/Documents/Github/esos32/include/esos.h"
 1473              		.file 11 "/home/ryan/Documents/Gitlab/embedded-systems-development-milestones/libopencm3/include/l
 1474              		.file 12 "/home/ryan/Documents/Gitlab/embedded-systems-development-milestones/libopencm3/include/l
 1475              		.file 13 "/home/ryan/Documents/Gitlab/embedded-systems-development-milestones/ARM/gcc-arm-none-eab
 1476              		.file 14 "/home/ryan/Documents/Gitlab/embedded-systems-development-milestones/libopencm3/include/l
 1477              		.file 15 "/home/ryan/Documents/Github/esos32/include/all_generic.h"
ARM GAS  /tmp/ccyXqcsa.s 			page 38


DEFINED SYMBOLS
                            *ABS*:0000000000000000 m4_timer_uart_app.c
     /tmp/ccyXqcsa.s:20     .text.TOGGLE_LD2:0000000000000000 $t
     /tmp/ccyXqcsa.s:25     .text.TOGGLE_LD2:0000000000000000 TOGGLE_LD2
     /tmp/ccyXqcsa.s:48     .text.IS_B1_RELEASED:0000000000000000 $t
     /tmp/ccyXqcsa.s:53     .text.IS_B1_RELEASED:0000000000000000 IS_B1_RELEASED
     /tmp/ccyXqcsa.s:84     .text.IS_B1_RELEASED:0000000000000018 $d
     /tmp/ccyXqcsa.s:89     .text.flash_LED:0000000000000000 $t
     /tmp/ccyXqcsa.s:95     .text.flash_LED:0000000000000000 flash_LED
     /tmp/ccyXqcsa.s:252    .text.flash_LED:00000000000000bc $d
     /tmp/ccyXqcsa.s:257    .text.IS_B1_PRESSED:0000000000000000 $t
     /tmp/ccyXqcsa.s:262    .text.IS_B1_PRESSED:0000000000000000 IS_B1_PRESSED
     /tmp/ccyXqcsa.s:292    .text.usart_comms:0000000000000000 $t
     /tmp/ccyXqcsa.s:298    .text.usart_comms:0000000000000000 usart_comms
     /tmp/ccyXqcsa.s:342    .text.usart_comms:0000000000000024 $d
     /tmp/ccyXqcsa.s:362    .text.usart_comms:000000000000004c $t
     /tmp/ccyXqcsa.s:849    .text.usart_comms:0000000000000300 $d
     /tmp/ccyXqcsa.s:864    .text.usart_comms:0000000000000330 $t
     /tmp/ccyXqcsa.s:1270   .text.usart_comms:0000000000000554 $d
     /tmp/ccyXqcsa.s:1284   .text.__user_init_hw:0000000000000000 $t
     /tmp/ccyXqcsa.s:1290   .text.__user_init_hw:0000000000000000 __user_init_hw
     /tmp/ccyXqcsa.s:1328   .text.__user_init_hw:0000000000000030 $d
     /tmp/ccyXqcsa.s:1333   .rodata.user_init.str1.4:0000000000000000 $d
     /tmp/ccyXqcsa.s:1338   .text.user_init:0000000000000000 $t
     /tmp/ccyXqcsa.s:1344   .text.user_init:0000000000000000 user_init
     /tmp/ccyXqcsa.s:1375   .text.user_init:000000000000001c $d
     /tmp/ccyXqcsa.s:1382   .bss.ac_charArr.6:0000000000000000 $d
     /tmp/ccyXqcsa.s:1386   .bss.ac_charArr.6:0000000000000000 ac_charArr.6
     /tmp/ccyXqcsa.s:1392   .bss.b_changeFlag.3:0000000000000000 b_changeFlag.3
     /tmp/ccyXqcsa.s:1393   .bss.b_changeFlag.3:0000000000000000 $d
     /tmp/ccyXqcsa.s:1398   .bss.b_changeFlagSkip.2:0000000000000000 b_changeFlagSkip.2
     /tmp/ccyXqcsa.s:1399   .bss.b_changeFlagSkip.2:0000000000000000 $d
     /tmp/ccyXqcsa.s:1404   .bss.b_skipPrint.4:0000000000000000 b_skipPrint.4
     /tmp/ccyXqcsa.s:1405   .bss.b_skipPrint.4:0000000000000000 $d
     /tmp/ccyXqcsa.s:1407   .bss.u16_changePeriod.1:0000000000000000 $d
     /tmp/ccyXqcsa.s:1411   .bss.u16_changePeriod.1:0000000000000000 u16_changePeriod.1
     /tmp/ccyXqcsa.s:1417   .bss.u8_charCount.5:0000000000000000 u8_charCount.5
     /tmp/ccyXqcsa.s:1418   .bss.u8_charCount.5:0000000000000000 $d
     /tmp/ccyXqcsa.s:1423   .bss.u8_countDecode.9:0000000000000000 u8_countDecode.9
     /tmp/ccyXqcsa.s:1424   .bss.u8_countDecode.9:0000000000000000 $d
     /tmp/ccyXqcsa.s:1429   .bss.u8_countEncode.10:0000000000000000 u8_countEncode.10
     /tmp/ccyXqcsa.s:1430   .bss.u8_countEncode.10:0000000000000000 $d
     /tmp/ccyXqcsa.s:1435   .bss.u8_digitCount.0:0000000000000000 u8_digitCount.0
     /tmp/ccyXqcsa.s:1436   .bss.u8_digitCount.0:0000000000000000 $d
     /tmp/ccyXqcsa.s:1441   .bss.u8_exclamCount.7:0000000000000000 u8_exclamCount.7
     /tmp/ccyXqcsa.s:1442   .bss.u8_exclamCount.7:0000000000000000 $d
     /tmp/ccyXqcsa.s:1447   .bss.u8_incoming.11:0000000000000000 u8_incoming.11
     /tmp/ccyXqcsa.s:1448   .bss.u8_incoming.11:0000000000000000 $d
     /tmp/ccyXqcsa.s:1450   .data.u16_encode_periodHalf:0000000000000000 $d
     /tmp/ccyXqcsa.s:1454   .data.u16_encode_periodHalf:0000000000000000 u16_encode_periodHalf
     /tmp/ccyXqcsa.s:1457   .rodata.au8_key.8:0000000000000000 $d
     /tmp/ccyXqcsa.s:1461   .rodata.au8_key.8:0000000000000000 au8_key.8

UNDEFINED SYMBOLS
gpio_toggle
gpio_get
__esos_hw_GetSystemTickCount
ARM GAS  /tmp/ccyXqcsa.s 			page 39


__esos_hasTickDurationPassed
__esos_getBuffer
__esos_OutChar
itoa
__stChildTaskRx
__esos_u32SystemFlags
__stChildTaskTx
__esos_OutUint8AsDecString
rcc_periph_clock_enable
gpio_mode_setup
__esos_unsafe_PutString
esos_RegisterTask
